
hello.elf:     file format elf32-zpu

Disassembly of section .fixed_vectors:

00000000 <_start>:
   0:	0b          	nop
   1:	0b          	nop
   2:	0b          	nop
   3:	0b          	nop
   4:	82          	im 2
   5:	70          	loadsp 0
   6:	0b          	nop
   7:	0b          	nop
   8:	80          	im 0
   9:	cf          	im -49
   a:	d8          	im -40
   b:	0c          	store
   c:	3a          	config
   d:	0b          	nop
   e:	0b          	nop
   f:	80          	im 0
  10:	c6          	im -58
  11:	d0          	im -48
  12:	04          	poppc
	...

00000020 <_zpu_interrupt_vector>:
  20:	80          	im 0
  21:	08          	load
  22:	84          	im 4
  23:	08          	load
  24:	88          	im 8
  25:	08          	load
  26:	0b          	nop
  27:	0b          	nop
  28:	80          	im 0
  29:	c7          	im -57
  2a:	97          	im 23
  2b:	2d          	call
  2c:	88          	im 8
  2d:	0c          	store
  2e:	84          	im 4
  2f:	0c          	store
  30:	80          	im 0
  31:	0c          	store
  32:	04          	poppc
	...

00000040 <_loadh>:
  40:	71          	loadsp 4
  41:	fd          	im -3
  42:	06          	and
  43:	08          	load
  44:	72          	loadsp 8
  45:	83          	im 3
  46:	06          	and
  47:	09          	not
  48:	81          	im 1
  49:	05          	add
  4a:	82          	im 2
  4b:	05          	add
  4c:	83          	im 3
  4d:	2b          	ashiftleft
  4e:	2a          	lshiftright
  4f:	83          	im 3
  50:	ff          	im -1
  51:	ff          	im -1
  52:	06          	and
  53:	52          	storesp 8
  54:	04          	poppc
	...

00000060 <_storeh>:
  60:	71          	loadsp 4
  61:	fd          	im -3
  62:	06          	and
  63:	08          	load
  64:	83          	im 3
  65:	ff          	im -1
  66:	ff          	im -1
  67:	73          	loadsp 12
  68:	83          	im 3
  69:	06          	and
  6a:	09          	not
  6b:	81          	im 1
  6c:	05          	add
  6d:	82          	im 2
  6e:	05          	add
  6f:	83          	im 3
  70:	2b          	ashiftleft
  71:	2b          	ashiftleft
  72:	09          	not
  73:	06          	and
  74:	73          	loadsp 12
  75:	83          	im 3
  76:	ff          	im -1
  77:	ff          	im -1
  78:	0b          	nop
  79:	0b          	nop
  7a:	0b          	nop
  7b:	0b          	nop
  7c:	83          	im 3
  7d:	a7          	im 39
  7e:	04          	poppc
	...

00000080 <_lessthan>:
  80:	72          	loadsp 8
  81:	09          	not
  82:	81          	im 1
  83:	05          	add
  84:	72          	loadsp 8
  85:	05          	add
  86:	73          	loadsp 12
  87:	73          	loadsp 12
  88:	09          	not
  89:	06          	and
  8a:	09          	not
  8b:	06          	and
  8c:	73          	loadsp 12
  8d:	09          	not
  8e:	73          	loadsp 12
  8f:	06          	and
  90:	07          	or
  91:	0a          	flip
  92:	81          	im 1
  93:	06          	and
  94:	53          	storesp 12
  95:	51          	storesp 4
  96:	04          	poppc
	...

000000a0 <_lessthanorequal>:
  a0:	72          	loadsp 8
  a1:	72          	loadsp 8
  a2:	24          	lessthan
  a3:	73          	loadsp 12
  a4:	73          	loadsp 12
  a5:	2e          	eq
  a6:	07          	or
  a7:	53          	storesp 12
  a8:	51          	storesp 4
  a9:	04          	poppc
	...

000000c0 <_ulessthan>:
  c0:	71          	loadsp 4
  c1:	73          	loadsp 12
  c2:	71          	loadsp 4
  c3:	09          	not
  c4:	71          	loadsp 4
  c5:	06          	and
  c6:	81          	im 1
  c7:	06          	and
  c8:	30          	neg
  c9:	72          	loadsp 8
  ca:	0a          	flip
  cb:	10          	addsp 0
  cc:	0a          	flip
  cd:	72          	loadsp 8
  ce:	0a          	flip
  cf:	10          	addsp 0
  d0:	0a          	flip
  d1:	31          	sub
  d2:	05          	add
  d3:	0a          	flip
  d4:	81          	im 1
  d5:	06          	and
  d6:	51          	storesp 4
  d7:	51          	storesp 4
  d8:	53          	storesp 12
  d9:	51          	storesp 4
  da:	04          	poppc
  db:	00          	breakpoint
  dc:	00          	breakpoint
  dd:	00          	breakpoint
	...

000000e0 <_ulessthanorequal>:
  e0:	72          	loadsp 8
  e1:	72          	loadsp 8
  e2:	26          	ulessthan
  e3:	73          	loadsp 12
  e4:	73          	loadsp 12
  e5:	2e          	eq
  e6:	07          	or
  e7:	53          	storesp 12
  e8:	51          	storesp 4
  e9:	04          	poppc
	...

00000100 <_swap>:
	...

00000120 <_slowmult>:
 120:	0b          	nop
 121:	0b          	nop
 122:	0b          	nop
 123:	88          	im 8
 124:	c4          	im -60
 125:	04          	poppc
	...

00000140 <_lshiftright>:
 140:	72          	loadsp 8
 141:	0a          	flip
 142:	72          	loadsp 8
 143:	2b          	ashiftleft
 144:	0a          	flip
 145:	53          	storesp 12
 146:	51          	storesp 4
 147:	04          	poppc
	...

00000160 <_ashiftleft>:
 160:	72          	loadsp 8
 161:	72          	loadsp 8
 162:	9f          	im 31
 163:	06          	and
 164:	09          	not
 165:	81          	im 1
 166:	05          	add
 167:	0b          	nop
 168:	0b          	nop
 169:	0b          	nop
 16a:	88          	im 8
 16b:	a7          	im 39
 16c:	05          	add
 16d:	04          	poppc
	...

00000180 <_ashiftright>:
 180:	72          	loadsp 8
 181:	72          	loadsp 8
 182:	2a          	lshiftright
 183:	ff          	im -1
 184:	73          	loadsp 12
 185:	9f          	im 31
 186:	06          	and
 187:	2a          	lshiftright
 188:	09          	not
 189:	74          	loadsp 16
 18a:	09          	not
 18b:	0a          	flip
 18c:	81          	im 1
 18d:	06          	and
 18e:	ff          	im -1
 18f:	05          	add
 190:	06          	and
 191:	07          	or
 192:	53          	storesp 12
 193:	51          	storesp 4
 194:	04          	poppc
	...

000001a0 <_call>:
 1a0:	71          	loadsp 4
 1a1:	71          	loadsp 4
 1a2:	53          	storesp 12
 1a3:	51          	storesp 4
 1a4:	02          	pushsp
 1a5:	0d          	popsp
 1a6:	04          	poppc

000001a7 <_storehtail>:
 1a7:	06          	and
 1a8:	73          	loadsp 12
 1a9:	83          	im 3
 1aa:	06          	and
 1ab:	09          	not
 1ac:	81          	im 1
 1ad:	05          	add
 1ae:	82          	im 2
 1af:	05          	add
 1b0:	83          	im 3
 1b1:	2b          	ashiftleft
 1b2:	0b          	nop
 1b3:	2b          	ashiftleft
 1b4:	07          	or
 1b5:	72          	loadsp 8
 1b6:	fc          	im -4
 1b7:	06          	and
 1b8:	0c          	store
 1b9:	51          	storesp 4
 1ba:	51          	storesp 4
 1bb:	04          	poppc
 1bc:	00          	breakpoint
 1bd:	00          	breakpoint
	...

000001c0 <_eq>:
 1c0:	72          	loadsp 8
 1c1:	09          	not
 1c2:	81          	im 1
 1c3:	05          	add
 1c4:	72          	loadsp 8
 1c5:	05          	add
 1c6:	09          	not
 1c7:	70          	loadsp 0
 1c8:	81          	im 1
 1c9:	05          	add
 1ca:	09          	not
 1cb:	06          	and
 1cc:	0a          	flip
 1cd:	81          	im 1
 1ce:	06          	and
 1cf:	53          	storesp 12
 1d0:	51          	storesp 4
 1d1:	04          	poppc
	...

000001e0 <_neq>:
 1e0:	72          	loadsp 8
 1e1:	09          	not
 1e2:	81          	im 1
 1e3:	05          	add
 1e4:	72          	loadsp 8
 1e5:	05          	add
 1e6:	09          	not
 1e7:	70          	loadsp 0
 1e8:	81          	im 1
 1e9:	05          	add
 1ea:	09          	not
 1eb:	06          	and
 1ec:	0a          	flip
 1ed:	09          	not
 1ee:	81          	im 1
 1ef:	06          	and
 1f0:	53          	storesp 12
 1f1:	51          	storesp 4
 1f2:	04          	poppc
	...

00000200 <_neg>:
 200:	71          	loadsp 4
 201:	09          	not
 202:	81          	im 1
 203:	05          	add
 204:	52          	storesp 8
 205:	04          	poppc
	...

00000220 <_sub>:
 220:	72          	loadsp 8
 221:	72          	loadsp 8
 222:	09          	not
 223:	81          	im 1
 224:	05          	add
 225:	05          	add
 226:	53          	storesp 12
 227:	51          	storesp 4
 228:	04          	poppc
	...

00000240 <_xor>:
 240:	72          	loadsp 8
 241:	09          	not
 242:	72          	loadsp 8
 243:	06          	and
 244:	73          	loadsp 12
 245:	73          	loadsp 12
 246:	09          	not
 247:	06          	and
 248:	07          	or
 249:	53          	storesp 12
 24a:	51          	storesp 4
 24b:	04          	poppc
	...

00000260 <_loadb>:
 260:	71          	loadsp 4
 261:	fc          	im -4
 262:	06          	and
 263:	08          	load
 264:	72          	loadsp 8
 265:	83          	im 3
 266:	06          	and
 267:	09          	not
 268:	81          	im 1
 269:	05          	add
 26a:	83          	im 3
 26b:	05          	add
 26c:	10          	addsp 0
 26d:	10          	addsp 0
 26e:	10          	addsp 0
 26f:	2a          	lshiftright
 270:	81          	im 1
 271:	ff          	im -1
 272:	06          	and
 273:	52          	storesp 8
 274:	04          	poppc
	...

00000280 <_storeb>:
 280:	71          	loadsp 4
 281:	fc          	im -4
 282:	06          	and
 283:	08          	load
 284:	0b          	nop
 285:	0b          	nop
 286:	80          	im 0
 287:	cf          	im -49
 288:	c4          	im -60
 289:	73          	loadsp 12
 28a:	83          	im 3
 28b:	06          	and
 28c:	10          	addsp 0
 28d:	10          	addsp 0
 28e:	05          	add
 28f:	08          	load
 290:	06          	and
 291:	0b          	nop
 292:	0b          	nop
 293:	0b          	nop
 294:	88          	im 8
 295:	aa          	im 42
 296:	04          	poppc
	...

000002a0 <_div>:
 2a0:	80          	im 0
 2a1:	08          	load
 2a2:	84          	im 4
 2a3:	08          	load
 2a4:	88          	im 8
 2a5:	08          	load
 2a6:	75          	loadsp 20
 2a7:	75          	loadsp 20
 2a8:	0b          	nop
 2a9:	0b          	nop
 2aa:	0b          	nop
 2ab:	8b          	im 11
 2ac:	9f          	im 31
 2ad:	2d          	call
 2ae:	50          	storesp 0
 2af:	50          	storesp 0
 2b0:	80          	im 0
 2b1:	08          	load
 2b2:	56          	storesp 24
 2b3:	88          	im 8
 2b4:	0c          	store
 2b5:	84          	im 4
 2b6:	0c          	store
 2b7:	80          	im 0
 2b8:	0c          	store
 2b9:	51          	storesp 4
 2ba:	04          	poppc
 2bb:	00          	breakpoint
 2bc:	00          	breakpoint
 2bd:	00          	breakpoint
	...

000002c0 <_mod>:
 2c0:	80          	im 0
 2c1:	08          	load
 2c2:	84          	im 4
 2c3:	08          	load
 2c4:	88          	im 8
 2c5:	08          	load
 2c6:	75          	loadsp 20
 2c7:	75          	loadsp 20
 2c8:	0b          	nop
 2c9:	0b          	nop
 2ca:	0b          	nop
 2cb:	8b          	im 11
 2cc:	e3          	im -29
 2cd:	2d          	call
 2ce:	50          	storesp 0
 2cf:	50          	storesp 0
 2d0:	80          	im 0
 2d1:	08          	load
 2d2:	56          	storesp 24
 2d3:	88          	im 8
 2d4:	0c          	store
 2d5:	84          	im 4
 2d6:	0c          	store
 2d7:	80          	im 0
 2d8:	0c          	store
 2d9:	51          	storesp 4
 2da:	04          	poppc
 2db:	00          	breakpoint
 2dc:	00          	breakpoint
 2dd:	00          	breakpoint
	...

000002e0 <_eqbranch>:
 2e0:	72          	loadsp 8
 2e1:	09          	not
 2e2:	70          	loadsp 0
 2e3:	81          	im 1
 2e4:	05          	add
 2e5:	09          	not
 2e6:	06          	and
 2e7:	0a          	flip
 2e8:	81          	im 1
 2e9:	06          	and
 2ea:	ff          	im -1
 2eb:	05          	add
 2ec:	70          	loadsp 0
 2ed:	54          	storesp 16
 2ee:	71          	loadsp 4
 2ef:	06          	and
 2f0:	73          	loadsp 12
 2f1:	09          	not
 2f2:	72          	loadsp 8
 2f3:	74          	loadsp 16
 2f4:	05          	add
 2f5:	ff          	im -1
 2f6:	05          	add
 2f7:	06          	and
 2f8:	07          	or
 2f9:	51          	storesp 4
 2fa:	51          	storesp 4
 2fb:	51          	storesp 4
 2fc:	04          	poppc
 2fd:	00          	breakpoint
	...

00000300 <_neqbranch>:
 300:	72          	loadsp 8
 301:	09          	not
 302:	70          	loadsp 0
 303:	81          	im 1
 304:	05          	add
 305:	09          	not
 306:	06          	and
 307:	0a          	flip
 308:	09          	not
 309:	81          	im 1
 30a:	06          	and
 30b:	ff          	im -1
 30c:	05          	add
 30d:	70          	loadsp 0
 30e:	54          	storesp 16
 30f:	71          	loadsp 4
 310:	06          	and
 311:	73          	loadsp 12
 312:	09          	not
 313:	72          	loadsp 8
 314:	74          	loadsp 16
 315:	05          	add
 316:	ff          	im -1
 317:	05          	add
 318:	06          	and
 319:	07          	or
 31a:	51          	storesp 4
 31b:	51          	storesp 4
 31c:	51          	storesp 4
 31d:	04          	poppc
	...

00000320 <_poppcrel>:
 320:	05          	add
 321:	ff          	im -1
 322:	05          	add
 323:	04          	poppc
	...

00000340 <_config>:
 340:	81          	im 1
 341:	0b          	nop
 342:	0b          	nop
 343:	0b          	nop
 344:	80          	im 0
 345:	cf          	im -49
 346:	d4          	im -44
 347:	0c          	store
 348:	51          	storesp 4
 349:	04          	poppc
	...

00000360 <_pushpc>:
 360:	71          	loadsp 4
 361:	81          	im 1
 362:	05          	add
 363:	52          	storesp 8
 364:	04          	poppc
	...

00000380 <_syscall_emulate>:
	...

000003a0 <_pushspadd>:
 3a0:	02          	pushsp
 3a1:	84          	im 4
 3a2:	05          	add
 3a3:	72          	loadsp 8
 3a4:	10          	addsp 0
 3a5:	10          	addsp 0
 3a6:	05          	add
 3a7:	52          	storesp 8
 3a8:	04          	poppc
	...

000003c0 <_halfmult>:
	...

000003e0 <_callpcrel>:
 3e0:	71          	loadsp 4
 3e1:	71          	loadsp 4
 3e2:	05          	add
 3e3:	ff          	im -1
 3e4:	05          	add
 3e5:	71          	loadsp 4
 3e6:	53          	storesp 12
 3e7:	51          	storesp 4
 3e8:	02          	pushsp
 3e9:	0d          	popsp
 3ea:	04          	poppc
	...
Disassembly of section .init:

00000400 <_init>:
 400:	82          	im 2
 401:	c5          	im -59
 402:	3f          	callpcrel
 403:	80          	im 0
 404:	c6          	im -58
 405:	d9          	im -39
 406:	3f          	callpcrel
 407:	04          	poppc
Disassembly of section .text:

00000408 <_ashiftleftBegin>:
     408:	10          	addsp 0
     409:	10          	addsp 0
     40a:	10          	addsp 0
     40b:	10          	addsp 0
     40c:	10          	addsp 0
     40d:	10          	addsp 0
     40e:	10          	addsp 0
     40f:	10          	addsp 0
     410:	10          	addsp 0
     411:	10          	addsp 0
     412:	10          	addsp 0
     413:	10          	addsp 0
     414:	10          	addsp 0
     415:	10          	addsp 0
     416:	10          	addsp 0
     417:	10          	addsp 0
     418:	10          	addsp 0
     419:	10          	addsp 0
     41a:	10          	addsp 0
     41b:	10          	addsp 0
     41c:	10          	addsp 0
     41d:	10          	addsp 0
     41e:	10          	addsp 0
     41f:	10          	addsp 0
     420:	10          	addsp 0
     421:	10          	addsp 0
     422:	10          	addsp 0
     423:	10          	addsp 0
     424:	10          	addsp 0
     425:	10          	addsp 0
     426:	10          	addsp 0

00000427 <_ashiftleftEnd>:
     427:	53          	storesp 12
     428:	51          	storesp 4
     429:	04          	poppc

0000042a <_storebtail>:
     42a:	73          	loadsp 12
     42b:	81          	im 1
     42c:	ff          	im -1
     42d:	06          	and
     42e:	73          	loadsp 12
     42f:	83          	im 3
     430:	06          	and
     431:	09          	not
     432:	81          	im 1
     433:	05          	add
     434:	83          	im 3
     435:	05          	add
     436:	10          	addsp 0
     437:	10          	addsp 0
     438:	10          	addsp 0
     439:	2b          	ashiftleft
     43a:	07          	or
     43b:	72          	loadsp 8
     43c:	fc          	im -4
     43d:	06          	and
     43e:	0c          	store
     43f:	51          	storesp 4
     440:	51          	storesp 4
     441:	04          	poppc

00000442 <_syscall>:
     442:	3c          	syscall
     443:	04          	poppc

00000444 <_slowmultImpl>:
     444:	72          	loadsp 8
     445:	72          	loadsp 8
     446:	80          	im 0
     447:	72          	loadsp 8
     448:	81          	im 1
     449:	06          	and
     44a:	ff          	im -1
     44b:	05          	add
     44c:	09          	not
     44d:	72          	loadsp 8
     44e:	06          	and
     44f:	05          	add
     450:	71          	loadsp 4
     451:	10          	addsp 0
     452:	52          	storesp 8
     453:	72          	loadsp 8
     454:	0a          	flip
     455:	10          	addsp 0
     456:	0a          	flip
     457:	53          	storesp 12
     458:	72          	loadsp 8
     459:	ed          	im -19
     45a:	38          	neqbranch
     45b:	51          	storesp 4
     45c:	51          	storesp 4
     45d:	53          	storesp 12
     45e:	51          	storesp 4
     45f:	04          	poppc

00000460 <inbyte>:
     460:	fe          	im -2
     461:	3d          	pushspadd
     462:	0d          	popsp
     463:	0b          	nop
     464:	0b          	nop
     465:	80          	im 0
     466:	df          	im -33
     467:	c0          	im -64
     468:	08          	load
     469:	53          	storesp 12

0000046a <.L2>:
     46a:	84          	im 4
     46b:	13          	addsp 12
     46c:	08          	load

0000046d <.LSM2>:
     46d:	70          	loadsp 0
     46e:	88          	im 8
     46f:	2a          	lshiftright
     470:	70          	loadsp 0
     471:	81          	im 1
     472:	06          	and
     473:	51          	storesp 4
     474:	52          	storesp 8
     475:	52          	storesp 8
     476:	70          	loadsp 0
     477:	80          	im 0
     478:	2e          	eq
     479:	f0          	im -16
     47a:	38          	neqbranch

0000047b <.LSM3>:
     47b:	71          	loadsp 4
     47c:	81          	im 1
     47d:	ff          	im -1
     47e:	06          	and
     47f:	80          	im 0
     480:	0c          	store

00000481 <.LSM4>:
     481:	84          	im 4
     482:	3d          	pushspadd
     483:	0d          	popsp
     484:	04          	poppc

00000485 <outbyte>:
     485:	ff          	im -1
     486:	3d          	pushspadd
     487:	0d          	popsp
     488:	0b          	nop
     489:	0b          	nop
     48a:	80          	im 0
     48b:	df          	im -33
     48c:	c0          	im -64
     48d:	08          	load
     48e:	52          	storesp 8

0000048f <.L9>:
     48f:	71          	loadsp 4
     490:	08          	load
     491:	70          	loadsp 0
     492:	88          	im 8
     493:	2a          	lshiftright
     494:	81          	im 1
     495:	32          	xor
     496:	70          	loadsp 0
     497:	81          	im 1
     498:	06          	and
     499:	51          	storesp 4
     49a:	51          	storesp 4
     49b:	51          	storesp 4
     49c:	70          	loadsp 0
     49d:	f1          	im -15
     49e:	38          	neqbranch

0000049f <.LSM7>:
     49f:	73          	loadsp 12
     4a0:	72          	loadsp 8
     4a1:	0c          	store
     4a2:	83          	im 3
     4a3:	3d          	pushspadd
     4a4:	0d          	popsp
     4a5:	04          	poppc

000004a6 <_initIO>:
     4a6:	80          	im 0
     4a7:	cf          	im -49
     4a8:	d4          	im -44
     4a9:	08          	load
     4aa:	80          	im 0
     4ab:	2e          	eq
     4ac:	a4          	im 36
     4ad:	38          	neqbranch

000004ae <.LSM10>:
     4ae:	80          	im 0
     4af:	cf          	im -49
     4b0:	d8          	im -40
     4b1:	08          	load
     4b2:	82          	im 2
     4b3:	2e          	eq
     4b4:	bd          	im 61
     4b5:	38          	neqbranch

000004b6 <.LSM11>:
     4b6:	83          	im 3
     4b7:	80          	im 0
     4b8:	80          	im 0
     4b9:	0b          	nop
     4ba:	0b          	nop
     4bb:	0b          	nop
     4bc:	80          	im 0
     4bd:	df          	im -33
     4be:	c0          	im -64
     4bf:	0c          	store

000004c0 <.LSM12>:
     4c0:	82          	im 2
     4c1:	a0          	im 32
     4c2:	80          	im 0
     4c3:	0b          	nop
     4c4:	80          	im 0
     4c5:	df          	im -33
     4c6:	c4          	im -60
     4c7:	0c          	store

000004c8 <.LSM13>:
     4c8:	82          	im 2
     4c9:	90          	im 16
     4ca:	80          	im 0
     4cb:	0b          	nop
     4cc:	80          	im 0
     4cd:	df          	im -33
     4ce:	c8          	im -56
     4cf:	0c          	store

000004d0 <.LSM14>:
     4d0:	04          	poppc

000004d1 <.L15>:
     4d1:	f8          	im -8
     4d2:	80          	im 0
     4d3:	80          	im 0
     4d4:	80          	im 0
     4d5:	a4          	im 36
     4d6:	0b          	nop
     4d7:	0b          	nop
     4d8:	0b          	nop
     4d9:	80          	im 0
     4da:	df          	im -33
     4db:	c0          	im -64
     4dc:	0c          	store

000004dd <.LSM16>:
     4dd:	f8          	im -8
     4de:	80          	im 0
     4df:	80          	im 0
     4e0:	82          	im 2
     4e1:	80          	im 0
     4e2:	0b          	nop
     4e3:	80          	im 0
     4e4:	df          	im -33
     4e5:	c4          	im -60
     4e6:	0c          	store

000004e7 <.LSM17>:
     4e7:	f8          	im -8
     4e8:	80          	im 0
     4e9:	80          	im 0
     4ea:	84          	im 4
     4eb:	80          	im 0
     4ec:	0b          	nop
     4ed:	80          	im 0
     4ee:	df          	im -33
     4ef:	c8          	im -56
     4f0:	0c          	store

000004f1 <.LSM18>:
     4f1:	04          	poppc

000004f2 <.L20>:
     4f2:	80          	im 0
     4f3:	c0          	im -64
     4f4:	a8          	im 40
     4f5:	80          	im 0
     4f6:	8c          	im 12
     4f7:	0b          	nop
     4f8:	0b          	nop
     4f9:	0b          	nop
     4fa:	80          	im 0
     4fb:	df          	im -33
     4fc:	c0          	im -64
     4fd:	0c          	store

000004fe <.LSM20>:
     4fe:	80          	im 0
     4ff:	c0          	im -64
     500:	a8          	im 40
     501:	80          	im 0
     502:	94          	im 20
     503:	0b          	nop
     504:	80          	im 0
     505:	df          	im -33
     506:	c4          	im -60
     507:	0c          	store

00000508 <.LSM21>:
     508:	0b          	nop
     509:	0b          	nop
     50a:	80          	im 0
     50b:	cf          	im -49
     50c:	8c          	im 12
     50d:	0b          	nop
     50e:	80          	im 0
     50f:	df          	im -33
     510:	c8          	im -56
     511:	0c          	store

00000512 <.LSM22>:
     512:	04          	poppc

00000513 <__do_global_dtors_aux>:
     513:	70          	loadsp 0
     514:	70          	loadsp 0
     515:	80          	im 0
     516:	df          	im -33
     517:	cc          	im -52
     518:	33          	loadb
     519:	51          	storesp 4
     51a:	70          	loadsp 0
     51b:	a7          	im 39
     51c:	38          	neqbranch
     51d:	80          	im 0
     51e:	cf          	im -49
     51f:	e0          	im -32
     520:	08          	load
     521:	70          	loadsp 0
     522:	08          	load
     523:	52          	storesp 8
     524:	52          	storesp 8
     525:	70          	loadsp 0
     526:	80          	im 0
     527:	2e          	eq
     528:	94          	im 20
     529:	38          	neqbranch

0000052a <.L12>:
     52a:	84          	im 4
     52b:	12          	addsp 8
     52c:	80          	im 0
     52d:	cf          	im -49
     52e:	e0          	im -32
     52f:	0c          	store
     530:	70          	loadsp 0
     531:	2d          	call
     532:	80          	im 0
     533:	cf          	im -49
     534:	e0          	im -32
     535:	08          	load
     536:	70          	loadsp 0
     537:	08          	load
     538:	52          	storesp 8
     539:	52          	storesp 8
     53a:	70          	loadsp 0
     53b:	ee          	im -18
     53c:	38          	neqbranch

0000053d <.L7>:
     53d:	81          	im 1
     53e:	0b          	nop
     53f:	80          	im 0
     540:	df          	im -33
     541:	cc          	im -52
     542:	34          	storeb

00000543 <.L1>:
     543:	50          	storesp 0
     544:	50          	storesp 0
     545:	04          	poppc

00000546 <call___do_global_dtors_aux>:
     546:	04          	poppc

00000547 <frame_dummy>:
     547:	70          	loadsp 0
     548:	0b          	nop
     549:	0b          	nop
     54a:	80          	im 0
     54b:	df          	im -33
     54c:	bc          	im 60
     54d:	08          	load
     54e:	80          	im 0
     54f:	2e          	eq
     550:	8e          	im 14
     551:	38          	neqbranch
     552:	0b          	nop
     553:	0b          	nop
     554:	0b          	nop
     555:	0b          	nop
     556:	80          	im 0
     557:	0b          	nop
     558:	80          	im 0
     559:	2e          	eq
     55a:	09          	not
     55b:	81          	im 1
     55c:	06          	and
     55d:	83          	im 3
     55e:	38          	neqbranch

0000055f <.L14>:
     55f:	50          	storesp 0
     560:	04          	poppc

00000561 <.L17>:
     561:	0b          	nop
     562:	0b          	nop
     563:	80          	im 0
     564:	df          	im -33
     565:	bc          	im 60
     566:	51          	storesp 4
     567:	0b          	nop
     568:	0b          	nop
     569:	0b          	nop
     56a:	f5          	im -11
     56b:	94          	im 20
     56c:	3f          	callpcrel
     56d:	50          	storesp 0
     56e:	04          	poppc

0000056f <call_frame_dummy>:
     56f:	04          	poppc

00000570 <main>:
     570:	fe          	im -2
     571:	3d          	pushspadd
     572:	0d          	popsp
     573:	89          	im 9
     574:	53          	storesp 12

00000575 <.L9>:
     575:	80          	im 0
     576:	cf          	im -49
     577:	90          	im 16
     578:	51          	storesp 4
     579:	82          	im 2
     57a:	c1          	im -63
     57b:	3f          	callpcrel

0000057c <.LM3>:
     57c:	80          	im 0
     57d:	cf          	im -49
     57e:	a0          	im 32
     57f:	51          	storesp 4
     580:	82          	im 2
     581:	ba          	im 58
     582:	3f          	callpcrel

00000583 <.LM4>:
     583:	81          	im 1
     584:	0a          	flip
     585:	0b          	nop
     586:	80          	im 0
     587:	df          	im -33
     588:	d8          	im -40
     589:	0c          	store

0000058a <.LM5>:
     58a:	ff          	im -1
     58b:	0b          	nop
     58c:	80          	im 0
     58d:	df          	im -33
     58e:	dc          	im -36
     58f:	0c          	store

00000590 <.LM6>:
     590:	ff          	im -1
     591:	13          	addsp 12
     592:	53          	storesp 12
     593:	72          	loadsp 8
     594:	80          	im 0
     595:	25          	lessthanorequal
     596:	de          	im -34
     597:	38          	neqbranch

00000598 <.LM7>:
     598:	72          	loadsp 8
     599:	80          	im 0
     59a:	0c          	store
     59b:	84          	im 4
     59c:	3d          	pushspadd
     59d:	0d          	popsp
     59e:	04          	poppc

0000059f <__divsi3>:
     59f:	fb          	im -5
     5a0:	3d          	pushspadd
     5a1:	0d          	popsp
     5a2:	77          	loadsp 28
     5a3:	79          	loadsp 36
     5a4:	55          	storesp 20
     5a5:	55          	storesp 20
     5a6:	80          	im 0
     5a7:	56          	storesp 24
     5a8:	75          	loadsp 20
     5a9:	75          	loadsp 20
     5aa:	24          	lessthan
     5ab:	ab          	im 43
     5ac:	38          	neqbranch
     5ad:	80          	im 0
     5ae:	74          	loadsp 16
     5af:	24          	lessthan
     5b0:	9d          	im 29
     5b1:	38          	neqbranch

000005b2 <.L4>:
     5b2:	80          	im 0
     5b3:	53          	storesp 12
     5b4:	73          	loadsp 12
     5b5:	52          	storesp 8
     5b6:	74          	loadsp 16
     5b7:	51          	storesp 4
     5b8:	80          	im 0
     5b9:	e1          	im -31
     5ba:	3f          	callpcrel
     5bb:	80          	im 0
     5bc:	08          	load
     5bd:	54          	storesp 16
     5be:	75          	loadsp 20
     5bf:	80          	im 0
     5c0:	2e          	eq
     5c1:	85          	im 5
     5c2:	38          	neqbranch
     5c3:	80          	im 0
     5c4:	08          	load
     5c5:	30          	neg
     5c6:	54          	storesp 16

000005c7 <.L6>:
     5c7:	73          	loadsp 12
     5c8:	80          	im 0
     5c9:	0c          	store
     5ca:	87          	im 7
     5cb:	3d          	pushspadd
     5cc:	0d          	popsp
     5cd:	04          	poppc

000005ce <.L9>:
     5ce:	73          	loadsp 12
     5cf:	30          	neg
     5d0:	76          	loadsp 24
     5d1:	81          	im 1
     5d2:	32          	xor
     5d3:	57          	storesp 28
     5d4:	54          	storesp 16
     5d5:	dc          	im -36
     5d6:	39          	poppcrel

000005d7 <.L8>:
     5d7:	74          	loadsp 16
     5d8:	30          	neg
     5d9:	55          	storesp 20
     5da:	81          	im 1
     5db:	56          	storesp 24
     5dc:	73          	loadsp 12
     5dd:	80          	im 0
     5de:	25          	lessthanorequal
     5df:	d2          	im -46
     5e0:	38          	neqbranch
     5e1:	ec          	im -20
     5e2:	39          	poppcrel

000005e3 <__modsi3>:
     5e3:	fa          	im -6
     5e4:	3d          	pushspadd
     5e5:	0d          	popsp
     5e6:	78          	loadsp 32
     5e7:	7a          	loadsp 40
     5e8:	57          	storesp 28
     5e9:	55          	storesp 20
     5ea:	80          	im 0
     5eb:	57          	storesp 28
     5ec:	76          	loadsp 24
     5ed:	75          	loadsp 20
     5ee:	24          	lessthan
     5ef:	a4          	im 36
     5f0:	38          	neqbranch

000005f1 <.L11>:
     5f1:	75          	loadsp 20
     5f2:	9f          	im 31
     5f3:	2c          	ashiftright
     5f4:	54          	storesp 16
     5f5:	81          	im 1
     5f6:	53          	storesp 12
     5f7:	75          	loadsp 20
     5f8:	74          	loadsp 16
     5f9:	32          	xor
     5fa:	74          	loadsp 16
     5fb:	31          	sub
     5fc:	52          	storesp 8
     5fd:	74          	loadsp 16
     5fe:	51          	storesp 4
     5ff:	9b          	im 27
     600:	3f          	callpcrel
     601:	80          	im 0
     602:	08          	load
     603:	54          	storesp 16
     604:	76          	loadsp 24
     605:	80          	im 0
     606:	2e          	eq
     607:	85          	im 5
     608:	38          	neqbranch
     609:	80          	im 0
     60a:	08          	load
     60b:	30          	neg
     60c:	54          	storesp 16

0000060d <.L13>:
     60d:	73          	loadsp 12
     60e:	80          	im 0
     60f:	0c          	store
     610:	88          	im 8
     611:	3d          	pushspadd
     612:	0d          	popsp
     613:	04          	poppc

00000614 <.L15>:
     614:	74          	loadsp 16
     615:	30          	neg
     616:	55          	storesp 20
     617:	81          	im 1
     618:	57          	storesp 28
     619:	d7          	im -41
     61a:	39          	poppcrel

0000061b <udivmodsi4>:
     61b:	fc          	im -4
     61c:	3d          	pushspadd
     61d:	0d          	popsp
     61e:	76          	loadsp 24
     61f:	78          	loadsp 32
     620:	53          	storesp 12
     621:	54          	storesp 16
     622:	81          	im 1
     623:	53          	storesp 12
     624:	80          	im 0
     625:	74          	loadsp 16
     626:	73          	loadsp 12
     627:	26          	ulessthan
     628:	52          	storesp 8
     629:	55          	storesp 20
     62a:	72          	loadsp 8
     62b:	80          	im 0
     62c:	2e          	eq
     62d:	98          	im 24
     62e:	38          	neqbranch

0000062f <.L18>:
     62f:	70          	loadsp 0
     630:	80          	im 0
     631:	2e          	eq
     632:	ab          	im 43
     633:	38          	neqbranch
     634:	80          	im 0
     635:	72          	loadsp 8
     636:	24          	lessthan
     637:	a6          	im 38
     638:	38          	neqbranch
     639:	71          	loadsp 4
     63a:	10          	addsp 0
     63b:	73          	loadsp 12
     63c:	10          	addsp 0
     63d:	75          	loadsp 20
     63e:	72          	loadsp 8
     63f:	26          	ulessthan
     640:	53          	storesp 12
     641:	54          	storesp 16
     642:	52          	storesp 8
     643:	72          	loadsp 8
     644:	ea          	im -22
     645:	38          	neqbranch

00000646 <.L13>:
     646:	73          	loadsp 12
     647:	51          	storesp 4
     648:	78          	loadsp 32
     649:	83          	im 3
     64a:	38          	neqbranch
     64b:	74          	loadsp 16
     64c:	51          	storesp 4

0000064d <.L1>:
     64d:	70          	loadsp 0
     64e:	80          	im 0
     64f:	0c          	store
     650:	86          	im 6
     651:	3d          	pushspadd
     652:	0d          	popsp
     653:	04          	poppc

00000654 <.L9>:
     654:	72          	loadsp 8
     655:	0a          	flip
     656:	10          	addsp 0
     657:	0a          	flip
     658:	72          	loadsp 8
     659:	0a          	flip
     65a:	10          	addsp 0
     65b:	0a          	flip
     65c:	53          	storesp 12
     65d:	53          	storesp 12

0000065e <.L3>:
     65e:	72          	loadsp 8
     65f:	80          	im 0
     660:	2e          	eq
     661:	e4          	im -28
     662:	38          	neqbranch
     663:	71          	loadsp 4
     664:	74          	loadsp 16
     665:	26          	ulessthan
     666:	ed          	im -19
     667:	38          	neqbranch
     668:	73          	loadsp 12
     669:	72          	loadsp 8
     66a:	31          	sub
     66b:	75          	loadsp 20
     66c:	74          	loadsp 16
     66d:	07          	or
     66e:	74          	loadsp 16
     66f:	0a          	flip
     670:	10          	addsp 0
     671:	0a          	flip
     672:	74          	loadsp 16
     673:	0a          	flip
     674:	10          	addsp 0
     675:	0a          	flip
     676:	55          	storesp 20
     677:	55          	storesp 20
     678:	56          	storesp 24
     679:	54          	storesp 16
     67a:	e3          	im -29
     67b:	39          	poppcrel

0000067c <_puts_r>:
     67c:	f7          	im -9
     67d:	3d          	pushspadd
     67e:	0d          	popsp
     67f:	7c          	loadsp 48

00000680 <.LM2>:
     680:	70          	loadsp 0
     681:	52          	storesp 8
     682:	53          	storesp 12
     683:	80          	im 0
     684:	f9          	im -7
     685:	3f          	callpcrel

00000686 <.LM3>:
     686:	72          	loadsp 8
     687:	54          	storesp 16

00000688 <.LM4>:
     688:	80          	im 0
     689:	08          	load
     68a:	55          	storesp 20

0000068b <.LM5>:
     68b:	80          	im 0
     68c:	cf          	im -49
     68d:	b0          	im 48
     68e:	56          	storesp 24

0000068f <.LM6>:
     68f:	81          	im 1
     690:	57          	storesp 28

00000691 <.LM7>:
     691:	80          	im 0
     692:	08          	load
     693:	81          	im 1
     694:	05          	add
     695:	5a          	storesp 40

00000696 <.LM8>:
     696:	8b          	im 11
     697:	3d          	pushspadd
     698:	e4          	im -28
     699:	11          	addsp 4
     69a:	59          	storesp 36
     69b:	53          	storesp 12

0000069c <.LM9>:
     69c:	82          	im 2
     69d:	59          	storesp 36

0000069e <.LM10>:
     69e:	f4          	im -12
     69f:	13          	addsp 12
     6a0:	52          	storesp 8
     6a1:	7b          	loadsp 44
     6a2:	88          	im 8
     6a3:	11          	addsp 4
     6a4:	08          	load
     6a5:	52          	storesp 8
     6a6:	53          	storesp 12
     6a7:	81          	im 1
     6a8:	b2          	im 50
     6a9:	3f          	callpcrel
     6aa:	80          	im 0
     6ab:	08          	load
     6ac:	30          	neg
     6ad:	70          	loadsp 0
     6ae:	80          	im 0
     6af:	08          	load
     6b0:	07          	or
     6b1:	9f          	im 31
     6b2:	2c          	ashiftright
     6b3:	8a          	im 10
     6b4:	07          	or
     6b5:	80          	im 0
     6b6:	0c          	store
     6b7:	53          	storesp 12

000006b8 <.LM11>:
     6b8:	8b          	im 11
     6b9:	3d          	pushspadd
     6ba:	0d          	popsp
     6bb:	04          	poppc

000006bc <puts>:
     6bc:	f6          	im -10
     6bd:	3d          	pushspadd
     6be:	0d          	popsp
     6bf:	7c          	loadsp 48

000006c0 <.LBB2>:
     6c0:	80          	im 0
     6c1:	cf          	im -49
     6c2:	e4          	im -28
     6c3:	08          	load

000006c4 <.LBB3>:
     6c4:	71          	loadsp 4
     6c5:	53          	storesp 12
     6c6:	55          	storesp 20
     6c7:	53          	storesp 12
     6c8:	b5          	im 53
     6c9:	3f          	callpcrel

000006ca <.LM15>:
     6ca:	72          	loadsp 8
     6cb:	55          	storesp 20

000006cc <.LM16>:
     6cc:	80          	im 0
     6cd:	08          	load
     6ce:	56          	storesp 24

000006cf <.LM17>:
     6cf:	80          	im 0
     6d0:	cf          	im -49
     6d1:	b0          	im 48
     6d2:	57          	storesp 28

000006d3 <.LM18>:
     6d3:	81          	im 1
     6d4:	58          	storesp 32

000006d5 <.LM19>:
     6d5:	80          	im 0
     6d6:	08          	load
     6d7:	81          	im 1
     6d8:	05          	add
     6d9:	5b          	storesp 44

000006da <.LM20>:
     6da:	8c          	im 12
     6db:	3d          	pushspadd
     6dc:	e4          	im -28
     6dd:	11          	addsp 4
     6de:	5a          	storesp 40
     6df:	53          	storesp 12

000006e0 <.LM21>:
     6e0:	82          	im 2
     6e1:	5a          	storesp 40
     6e2:	f4          	im -12
     6e3:	13          	addsp 12
     6e4:	52          	storesp 8
     6e5:	88          	im 8
     6e6:	14          	addsp 16
     6e7:	08          	load
     6e8:	51          	storesp 4
     6e9:	80          	im 0
     6ea:	f0          	im -16
     6eb:	3f          	callpcrel
     6ec:	80          	im 0
     6ed:	08          	load
     6ee:	30          	neg
     6ef:	70          	loadsp 0
     6f0:	80          	im 0
     6f1:	08          	load
     6f2:	07          	or
     6f3:	9f          	im 31
     6f4:	2c          	ashiftright
     6f5:	8a          	im 10
     6f6:	07          	or
     6f7:	80          	im 0
     6f8:	0c          	store
     6f9:	54          	storesp 16

000006fa <.LBE2>:
     6fa:	8c          	im 12
     6fb:	3d          	pushspadd
     6fc:	0d          	popsp
     6fd:	04          	poppc

000006fe <strlen>:
     6fe:	70          	loadsp 0
     6ff:	70          	loadsp 0
     700:	70          	loadsp 0
     701:	70          	loadsp 0
     702:	75          	loadsp 20

00000703 <.LM2>:
     703:	70          	loadsp 0

00000704 <.LM3>:
     704:	71          	loadsp 4
     705:	83          	im 3
     706:	06          	and
     707:	53          	storesp 12
     708:	55          	storesp 20
     709:	52          	storesp 8
     70a:	70          	loadsp 0
     70b:	b4          	im 52
     70c:	38          	neqbranch

0000070d <.LM4>:
     70d:	71          	loadsp 4

0000070e <.LM5>:
     70e:	70          	loadsp 0
     70f:	08          	load
     710:	70          	loadsp 0
     711:	09          	not
     712:	f7          	im -9
     713:	fb          	im -5
     714:	fd          	im -3
     715:	ff          	im -1
     716:	12          	addsp 8
     717:	06          	and
     718:	f8          	im -8
     719:	84          	im 4
     71a:	82          	im 2
     71b:	81          	im 1
     71c:	80          	im 0
     71d:	06          	and
     71e:	54          	storesp 16
     71f:	52          	storesp 8
     720:	53          	storesp 12
     721:	71          	loadsp 4
     722:	9b          	im 27
     723:	38          	neqbranch

00000724 <.L19>:
     724:	84          	im 4
     725:	13          	addsp 12
     726:	70          	loadsp 0
     727:	08          	load
     728:	70          	loadsp 0
     729:	09          	not
     72a:	f7          	im -9
     72b:	fb          	im -5
     72c:	fd          	im -3
     72d:	ff          	im -1
     72e:	12          	addsp 8
     72f:	06          	and
     730:	f8          	im -8
     731:	84          	im 4
     732:	82          	im 2
     733:	81          	im 1
     734:	80          	im 0
     735:	06          	and
     736:	54          	storesp 16
     737:	52          	storesp 8
     738:	53          	storesp 12
     739:	71          	loadsp 4
     73a:	80          	im 0
     73b:	2e          	eq
     73c:	e7          	im -25
     73d:	38          	neqbranch

0000073e <.L10>:
     73e:	72          	loadsp 8
     73f:	52          	storesp 8

00000740 <.L2>:
     740:	71          	loadsp 4
     741:	33          	loadb
     742:	53          	storesp 12
     743:	72          	loadsp 8
     744:	80          	im 0
     745:	2e          	eq
     746:	8a          	im 10
     747:	38          	neqbranch

00000748 <.L20>:
     748:	81          	im 1
     749:	12          	addsp 8
     74a:	70          	loadsp 0
     74b:	33          	loadb
     74c:	54          	storesp 16
     74d:	52          	storesp 8
     74e:	72          	loadsp 8
     74f:	f8          	im -8
     750:	38          	neqbranch

00000751 <.L12>:
     751:	71          	loadsp 4
     752:	74          	loadsp 16
     753:	31          	sub
     754:	80          	im 0
     755:	0c          	store

00000756 <.LM9>:
     756:	50          	storesp 0
     757:	50          	storesp 0
     758:	50          	storesp 0
     759:	50          	storesp 0
     75a:	04          	poppc

0000075b <__sfvwrite>:
     75b:	f2          	im -14
     75c:	3d          	pushspadd
     75d:	0d          	popsp
     75e:	60          	loadsp 64
     75f:	62          	loadsp 72

00000760 <.LM2>:
     760:	88          	im 8
     761:	11          	addsp 4
     762:	08          	load

00000763 <.LM3>:
     763:	70          	loadsp 0
     764:	58          	storesp 32
     765:	56          	storesp 24
     766:	5f          	storesp 60
     767:	5a          	storesp 40

00000768 <.LM4>:
     768:	73          	loadsp 12
     769:	80          	im 0
     76a:	2e          	eq
     76b:	81          	im 1
     76c:	8c          	im 12
     76d:	38          	neqbranch

0000076e <.LM5>:
     76e:	8c          	im 12
     76f:	1a          	addsp 40
     770:	22          	loadh
     771:	70          	loadsp 0
     772:	83          	im 3
     773:	2a          	lshiftright
     774:	81          	im 1
     775:	32          	xor
     776:	81          	im 1
     777:	06          	and
     778:	56          	storesp 24
     779:	58          	storesp 32
     77a:	74          	loadsp 16
     77b:	86          	im 6
     77c:	38          	neqbranch
     77d:	90          	im 16
     77e:	1a          	addsp 40
     77f:	08          	load
     780:	91          	im 17
     781:	38          	neqbranch

00000782 <.L4>:
     782:	79          	loadsp 36
     783:	51          	storesp 4
     784:	90          	im 16
     785:	b7          	im 55
     786:	3f          	callpcrel

00000787 <.LM6>:
     787:	ff          	im -1
     788:	55          	storesp 20

00000789 <.LM7>:
     789:	80          	im 0
     78a:	08          	load
     78b:	80          	im 0
     78c:	ec          	im -20
     78d:	38          	neqbranch
     78e:	8c          	im 12
     78f:	1a          	addsp 40
     790:	22          	loadh
     791:	58          	storesp 32

00000792 <.L3>:
     792:	7d          	loadsp 52
     793:	08          	load
     794:	55          	storesp 20

00000795 <.LM9>:
     795:	80          	im 0

00000796 <.LM10>:
     796:	78          	loadsp 32
     797:	83          	im 3
     798:	ff          	im -1
     799:	ff          	im -1
     79a:	06          	and
     79b:	70          	loadsp 0
     79c:	0a          	flip
     79d:	10          	addsp 0
     79e:	0a          	flip
     79f:	81          	im 1
     7a0:	06          	and
     7a1:	41          	storesp 68
     7a2:	5c          	storesp 48
     7a3:	57          	storesp 28
     7a4:	7e          	loadsp 56
     7a5:	77          	loadsp 28
     7a6:	2e          	eq
     7a7:	80          	im 0
     7a8:	d7          	im -41
     7a9:	38          	neqbranch

000007aa <.L79>:
     7aa:	76          	loadsp 24
     7ab:	90          	im 16
     7ac:	38          	neqbranch

000007ad <.L83>:
     7ad:	74          	loadsp 16
     7ae:	08          	load
     7af:	84          	im 4
     7b0:	16          	addsp 24
     7b1:	08          	load
     7b2:	88          	im 8
     7b3:	17          	addsp 28
     7b4:	57          	storesp 28
     7b5:	58          	storesp 32
     7b6:	56          	storesp 24
     7b7:	76          	loadsp 24
     7b8:	80          	im 0
     7b9:	2e          	eq
     7ba:	f2          	im -14
     7bb:	38          	neqbranch

000007bc <.L58>:
     7bc:	76          	loadsp 24
     7bd:	54          	storesp 16
     7be:	88          	im 8
     7bf:	80          	im 0
     7c0:	77          	loadsp 28
     7c1:	27          	ulessthanorequal
     7c2:	84          	im 4
     7c3:	38          	neqbranch
     7c4:	88          	im 8
     7c5:	80          	im 0
     7c6:	54          	storesp 16

000007c7 <.L12>:
     7c7:	73          	loadsp 12
     7c8:	53          	storesp 12
     7c9:	75          	loadsp 20
     7ca:	52          	storesp 8
     7cb:	9c          	im 28
     7cc:	1a          	addsp 40
     7cd:	08          	load
     7ce:	51          	storesp 4
     7cf:	a4          	im 36
     7d0:	1a          	addsp 40
     7d1:	08          	load
     7d2:	58          	storesp 32
     7d3:	77          	loadsp 28
     7d4:	2d          	call

000007d5 <.LM13>:
     7d5:	80          	im 0
     7d6:	0b          	nop
     7d7:	80          	im 0
     7d8:	08          	load
     7d9:	25          	lessthanorequal
     7da:	82          	im 2
     7db:	e0          	im -32
     7dc:	38          	neqbranch

000007dd <.LM14>:
     7dd:	80          	im 0
     7de:	08          	load
     7df:	16          	addsp 24

000007e0 <.LM15>:
     7e0:	77          	loadsp 28
     7e1:	80          	im 0
     7e2:	08          	load
     7e3:	31          	sub

000007e4 <.LM16>:
     7e4:	7f          	loadsp 60
     7e5:	88          	im 8
     7e6:	05          	add
     7e7:	08          	load
     7e8:	80          	im 0
     7e9:	08          	load
     7ea:	31          	sub
     7eb:	70          	loadsp 0
     7ec:	61          	loadsp 68
     7ed:	88          	im 8
     7ee:	05          	add
     7ef:	0c          	store
     7f0:	5b          	storesp 44
     7f1:	58          	storesp 32
     7f2:	56          	storesp 24
     7f3:	78          	loadsp 32
     7f4:	ff          	im -1
     7f5:	b4          	im 52
     7f6:	38          	neqbranch

000007f7 <.L15>:
     7f7:	80          	im 0
     7f8:	55          	storesp 20

000007f9 <.L1>:
     7f9:	74          	loadsp 16
     7fa:	80          	im 0
     7fb:	0c          	store
     7fc:	90          	im 16
     7fd:	3d          	pushspadd
     7fe:	0d          	popsp
     7ff:	04          	poppc

00000800 <.L5>:
     800:	7a          	loadsp 40
     801:	81          	im 1
     802:	32          	xor
     803:	81          	im 1
     804:	06          	and

00000805 <.LM20>:
     805:	77          	loadsp 28
     806:	40          	storesp 64
     807:	56          	storesp 24

00000808 <.LM21>:
     808:	75          	loadsp 20
     809:	80          	im 0
     80a:	2e          	eq
     80b:	81          	im 1
     80c:	bd          	im 61
     80d:	38          	neqbranch

0000080e <.L80>:
     80e:	76          	loadsp 24
     80f:	90          	im 16
     810:	38          	neqbranch

00000811 <.L84>:
     811:	74          	loadsp 16
     812:	08          	load
     813:	84          	im 4
     814:	16          	addsp 24
     815:	08          	load
     816:	88          	im 8
     817:	17          	addsp 28
     818:	57          	storesp 28
     819:	58          	storesp 32
     81a:	59          	storesp 36
     81b:	76          	loadsp 24
     81c:	80          	im 0
     81d:	2e          	eq
     81e:	f2          	im -14
     81f:	38          	neqbranch

00000820 <.L60>:
     820:	88          	im 8
     821:	1a          	addsp 40
     822:	08          	load

00000823 <.LM24>:
     823:	78          	loadsp 32
     824:	83          	im 3
     825:	ff          	im -1
     826:	ff          	im -1
     827:	06          	and
     828:	70          	loadsp 0
     829:	89          	im 9
     82a:	2a          	lshiftright
     82b:	81          	im 1
     82c:	06          	and
     82d:	56          	storesp 24
     82e:	59          	storesp 36
     82f:	56          	storesp 24
     830:	73          	loadsp 12
     831:	80          	im 0
     832:	2e          	eq
     833:	82          	im 2
     834:	f8          	im -8
     835:	38          	neqbranch

00000836 <.LM25>:
     836:	75          	loadsp 20
     837:	77          	loadsp 28
     838:	27          	ulessthanorequal
     839:	8b          	im 11
     83a:	38          	neqbranch
     83b:	77          	loadsp 28
     83c:	87          	im 7
     83d:	2a          	lshiftright
     83e:	81          	im 1
     83f:	06          	and
     840:	5c          	storesp 48
     841:	7b          	loadsp 44
     842:	82          	im 2
     843:	b5          	im 53
     844:	38          	neqbranch

00000845 <.L24>:
     845:	76          	loadsp 24
     846:	76          	loadsp 24
     847:	27          	ulessthanorequal
     848:	83          	im 3
     849:	38          	neqbranch

0000084a <.LM27>:
     84a:	76          	loadsp 24
     84b:	56          	storesp 24

0000084c <.L26>:
     84c:	75          	loadsp 20
     84d:	53          	storesp 12
     84e:	78          	loadsp 32
     84f:	52          	storesp 8
     850:	79          	loadsp 36
     851:	08          	load
     852:	51          	storesp 4
     853:	85          	im 5
     854:	83          	im 3
     855:	3f          	callpcrel

00000856 <.LM29>:
     856:	88          	im 8
     857:	1a          	addsp 40
     858:	08          	load
     859:	76          	loadsp 24
     85a:	31          	sub
     85b:	88          	im 8
     85c:	1b          	addsp 44
     85d:	0c          	store

0000085e <.LM30>:
     85e:	79          	loadsp 36
     85f:	08          	load
     860:	16          	addsp 24
     861:	7a          	loadsp 40
     862:	0c          	store

00000863 <.LM31>:
     863:	76          	loadsp 24
     864:	56          	storesp 24

00000865 <.L27>:
     865:	75          	loadsp 20
     866:	19          	addsp 36

00000867 <.LM33>:
     867:	77          	loadsp 28
     868:	77          	loadsp 28
     869:	31          	sub

0000086a <.LM34>:
     86a:	7f          	loadsp 60
     86b:	88          	im 8
     86c:	05          	add
     86d:	08          	load
     86e:	78          	loadsp 32
     86f:	31          	sub
     870:	70          	loadsp 0
     871:	61          	loadsp 68
     872:	88          	im 8
     873:	05          	add
     874:	0c          	store
     875:	41          	storesp 68
     876:	58          	storesp 32
     877:	59          	storesp 36
     878:	7e          	loadsp 56
     879:	80          	im 0
     87a:	2e          	eq
     87b:	fe          	im -2
     87c:	fa          	im -6
     87d:	38          	neqbranch
     87e:	8c          	im 12
     87f:	1a          	addsp 40
     880:	22          	loadh
     881:	58          	storesp 32
     882:	ff          	im -1
     883:	8a          	im 10
     884:	39          	poppcrel

00000885 <.L52>:
     885:	78          	loadsp 32

00000886 <.LM36>:
     886:	79          	loadsp 36
     887:	54          	storesp 16
     888:	7c          	loadsp 48
     889:	53          	storesp 12
     88a:	7b          	loadsp 44
     88b:	52          	storesp 8
     88c:	56          	storesp 24
     88d:	84          	im 4
     88e:	c9          	im -55
     88f:	3f          	callpcrel

00000890 <.LM37>:
     890:	88          	im 8
     891:	1a          	addsp 40
     892:	08          	load
     893:	79          	loadsp 36
     894:	31          	sub
     895:	88          	im 8
     896:	1b          	addsp 44
     897:	0c          	store

00000898 <.LM38>:
     898:	79          	loadsp 36
     899:	08          	load
     89a:	19          	addsp 36
     89b:	7a          	loadsp 40
     89c:	0c          	store

0000089d <.L51>:
     89d:	7c          	loadsp 48
     89e:	76          	loadsp 24
     89f:	31          	sub
     8a0:	5d          	storesp 52
     8a1:	7c          	loadsp 48
     8a2:	8e          	im 14
     8a3:	38          	neqbranch

000008a4 <.L87>:
     8a4:	79          	loadsp 36
     8a5:	51          	storesp 4
     8a6:	8f          	im 15
     8a7:	f2          	im -14
     8a8:	3f          	callpcrel
     8a9:	80          	im 0
     8aa:	08          	load
     8ab:	81          	im 1
     8ac:	8f          	im 15
     8ad:	38          	neqbranch

000008ae <.LM41>:
     8ae:	80          	im 0
     8af:	08          	load
     8b0:	5f          	storesp 60

000008b1 <.L55>:
     8b1:	75          	loadsp 20
     8b2:	1c          	addsp 48

000008b3 <.LM43>:
     8b3:	77          	loadsp 28
     8b4:	77          	loadsp 28
     8b5:	31          	sub

000008b6 <.LM44>:
     8b6:	7f          	loadsp 60
     8b7:	88          	im 8
     8b8:	05          	add
     8b9:	08          	load
     8ba:	78          	loadsp 32
     8bb:	31          	sub
     8bc:	70          	loadsp 0
     8bd:	61          	loadsp 68
     8be:	88          	im 8
     8bf:	05          	add
     8c0:	0c          	store
     8c1:	5d          	storesp 52
     8c2:	58          	storesp 32
     8c3:	5c          	storesp 48
     8c4:	7a          	loadsp 40
     8c5:	80          	im 0
     8c6:	2e          	eq
     8c7:	fe          	im -2
     8c8:	ae          	im 46
     8c9:	38          	neqbranch

000008ca <.L37>:
     8ca:	76          	loadsp 24
     8cb:	81          	im 1
     8cc:	83          	im 3
     8cd:	38          	neqbranch

000008ce <.L42>:
     8ce:	74          	loadsp 16
     8cf:	08          	load
     8d0:	84          	im 4
     8d1:	16          	addsp 24
     8d2:	08          	load
     8d3:	88          	im 8
     8d4:	17          	addsp 28
     8d5:	57          	storesp 28
     8d6:	58          	storesp 32
     8d7:	5c          	storesp 48
     8d8:	76          	loadsp 24
     8d9:	80          	im 0
     8da:	2e          	eq
     8db:	f2          	im -14
     8dc:	38          	neqbranch

000008dd <.L65>:
     8dd:	76          	loadsp 24
     8de:	53          	storesp 12
     8df:	8a          	im 10
     8e0:	52          	storesp 8
     8e1:	7b          	loadsp 44
     8e2:	51          	storesp 4
     8e3:	82          	im 2
     8e4:	d3          	im -45
     8e5:	3f          	callpcrel

000008e6 <.LM47>:
     8e6:	80          	im 0
     8e7:	08          	load
     8e8:	7c          	loadsp 48
     8e9:	31          	sub
     8ea:	81          	im 1
     8eb:	05          	add
     8ec:	5d          	storesp 52
     8ed:	80          	im 0
     8ee:	08          	load
     8ef:	84          	im 4
     8f0:	38          	neqbranch
     8f1:	81          	im 1
     8f2:	17          	addsp 28
     8f3:	5d          	storesp 52

000008f4 <.L45>:
     8f4:	81          	im 1
     8f5:	5f          	storesp 60

000008f6 <.L43>:
     8f6:	7c          	loadsp 48
     8f7:	59          	storesp 36
     8f8:	76          	loadsp 24
     8f9:	7d          	loadsp 52
     8fa:	27          	ulessthanorequal
     8fb:	83          	im 3
     8fc:	38          	neqbranch
     8fd:	76          	loadsp 24
     8fe:	59          	storesp 36

000008ff <.L46>:
     8ff:	94          	im 20
     900:	1a          	addsp 40
     901:	08          	load
     902:	88          	im 8
     903:	1b          	addsp 44
     904:	08          	load
     905:	11          	addsp 4
     906:	57          	storesp 28
     907:	58          	storesp 32

00000908 <.LM51>:
     908:	80          	im 0
     909:	7a          	loadsp 40
     90a:	08          	load
     90b:	5c          	storesp 48
     90c:	54          	storesp 16
     90d:	90          	im 16
     90e:	1a          	addsp 40
     90f:	08          	load
     910:	7b          	loadsp 44
     911:	27          	ulessthanorequal
     912:	83          	im 3
     913:	38          	neqbranch
     914:	81          	im 1
     915:	54          	storesp 16

00000916 <.L48>:
     916:	75          	loadsp 20
     917:	79          	loadsp 36
     918:	25          	lessthanorequal
     919:	84          	im 4
     91a:	38          	neqbranch
     91b:	73          	loadsp 12
     91c:	ba          	im 58
     91d:	38          	neqbranch

0000091e <.L47>:
     91e:	77          	loadsp 28
     91f:	79          	loadsp 36
     920:	24          	lessthan
     921:	fe          	im -2
     922:	e2          	im -30
     923:	38          	neqbranch

00000924 <.LM53>:
     924:	77          	loadsp 28
     925:	53          	storesp 12
     926:	7b          	loadsp 44
     927:	52          	storesp 8
     928:	9c          	im 28
     929:	1a          	addsp 40
     92a:	08          	load
     92b:	51          	storesp 4
     92c:	a4          	im 36
     92d:	1a          	addsp 40
     92e:	08          	load
     92f:	59          	storesp 36
     930:	78          	loadsp 32
     931:	2d          	call
     932:	80          	im 0
     933:	08          	load
     934:	56          	storesp 24

00000935 <.LM54>:
     935:	80          	im 0
     936:	08          	load
     937:	80          	im 0
     938:	24          	lessthan
     939:	fe          	im -2
     93a:	e2          	im -30
     93b:	38          	neqbranch

0000093c <.L14>:
     93c:	8c          	im 12
     93d:	1a          	addsp 40
     93e:	22          	loadh
     93f:	80          	im 0
     940:	c0          	im -64
     941:	07          	or
     942:	5e          	storesp 56
     943:	7d          	loadsp 52
     944:	8c          	im 12
     945:	1b          	addsp 44
     946:	23          	storeh

00000947 <.LM56>:
     947:	ff          	im -1
     948:	55          	storesp 20

00000949 <.L89>:
     949:	74          	loadsp 16
     94a:	80          	im 0
     94b:	0c          	store
     94c:	90          	im 16
     94d:	3d          	pushspadd
     94e:	0d          	popsp
     94f:	04          	poppc

00000950 <.L62>:
     950:	7e          	loadsp 56
     951:	ff          	im -1
     952:	a3          	im 35
     953:	38          	neqbranch
     954:	ff          	im -1
     955:	87          	im 7
     956:	39          	poppcrel

00000957 <.L86>:
     957:	75          	loadsp 20
     958:	53          	storesp 12
     959:	7b          	loadsp 44
     95a:	52          	storesp 8
     95b:	7a          	loadsp 40
     95c:	51          	storesp 4
     95d:	82          	im 2
     95e:	f9          	im -7
     95f:	3f          	callpcrel

00000960 <.LM60>:
     960:	79          	loadsp 36
     961:	08          	load
     962:	16          	addsp 24
     963:	7a          	loadsp 40
     964:	0c          	store

00000965 <.LM61>:
     965:	79          	loadsp 36
     966:	51          	storesp 4
     967:	8e          	im 14
     968:	b1          	im 49
     969:	3f          	callpcrel
     96a:	80          	im 0
     96b:	08          	load
     96c:	cf          	im -49
     96d:	38          	neqbranch

0000096e <.LM62>:
     96e:	7c          	loadsp 48
     96f:	76          	loadsp 24
     970:	31          	sub
     971:	5d          	storesp 52
     972:	7c          	loadsp 48
     973:	fe          	im -2
     974:	bc          	im 60
     975:	38          	neqbranch
     976:	fe          	im -2
     977:	ac          	im 44
     978:	39          	poppcrel

00000979 <.L85>:
     979:	90          	im 16
     97a:	1a          	addsp 40
     97b:	08          	load
     97c:	7a          	loadsp 40
     97d:	08          	load
     97e:	71          	loadsp 4
     97f:	31          	sub

00000980 <.LM64>:
     980:	78          	loadsp 32
     981:	11          	addsp 4
     982:	70          	loadsp 0
     983:	56          	storesp 24
     984:	5a          	storesp 40
     985:	57          	storesp 28
     986:	52          	storesp 8
     987:	80          	im 0
     988:	cf          	im -49
     989:	e4          	im -28
     98a:	08          	load
     98b:	51          	storesp 4
     98c:	84          	im 4
     98d:	94          	im 20
     98e:	3f          	callpcrel

0000098f <.LM65>:
     98f:	80          	im 0
     990:	08          	load
     991:	80          	im 0
     992:	2e          	eq
     993:	ff          	im -1
     994:	a7          	im 39
     995:	38          	neqbranch

00000996 <.LM66>:
     996:	80          	im 0
     997:	08          	load
     998:	90          	im 16
     999:	1b          	addsp 44
     99a:	0c          	store

0000099b <.LM67>:
     99b:	80          	im 0
     99c:	08          	load
     99d:	16          	addsp 24
     99e:	7a          	loadsp 40
     99f:	0c          	store

000009a0 <.LM68>:
     9a0:	77          	loadsp 28
     9a1:	94          	im 20
     9a2:	1b          	addsp 44
     9a3:	0c          	store

000009a4 <.LM69>:
     9a4:	76          	loadsp 24
     9a5:	88          	im 8
     9a6:	1b          	addsp 44
     9a7:	0c          	store
     9a8:	76          	loadsp 24
     9a9:	56          	storesp 24
     9aa:	fd          	im -3
     9ab:	99          	im 25
     9ac:	39          	poppcrel

000009ad <.L23>:
     9ad:	79          	loadsp 36
     9ae:	08          	load
     9af:	58          	storesp 32
     9b0:	90          	im 16
     9b1:	1a          	addsp 40
     9b2:	08          	load
     9b3:	78          	loadsp 32
     9b4:	27          	ulessthanorequal
     9b5:	83          	im 3
     9b6:	38          	neqbranch
     9b7:	81          	im 1
     9b8:	54          	storesp 16

000009b9 <.L29>:
     9b9:	75          	loadsp 20
     9ba:	77          	loadsp 28
     9bb:	27          	ulessthanorequal
     9bc:	84          	im 4
     9bd:	38          	neqbranch
     9be:	73          	loadsp 12
     9bf:	b3          	im 51
     9c0:	38          	neqbranch

000009c1 <.L28>:
     9c1:	94          	im 20
     9c2:	1a          	addsp 40
     9c3:	08          	load
     9c4:	54          	storesp 16
     9c5:	73          	loadsp 12
     9c6:	77          	loadsp 28
     9c7:	26          	ulessthan
     9c8:	80          	im 0
     9c9:	d3          	im -45
     9ca:	38          	neqbranch

000009cb <.LM72>:
     9cb:	73          	loadsp 12
     9cc:	53          	storesp 12
     9cd:	78          	loadsp 32
     9ce:	52          	storesp 8
     9cf:	9c          	im 28
     9d0:	1a          	addsp 40
     9d1:	08          	load
     9d2:	51          	storesp 4
     9d3:	a4          	im 36
     9d4:	1a          	addsp 40
     9d5:	08          	load
     9d6:	58          	storesp 32
     9d7:	77          	loadsp 28
     9d8:	2d          	call
     9d9:	80          	im 0
     9da:	08          	load
     9db:	56          	storesp 24

000009dc <.LM73>:
     9dc:	80          	im 0
     9dd:	08          	load
     9de:	80          	im 0
     9df:	24          	lessthan
     9e0:	fd          	im -3
     9e1:	83          	im 3
     9e2:	38          	neqbranch

000009e3 <.LM74>:
     9e3:	8c          	im 12
     9e4:	1a          	addsp 40
     9e5:	22          	loadh
     9e6:	80          	im 0
     9e7:	c0          	im -64
     9e8:	07          	or
     9e9:	5e          	storesp 56
     9ea:	7d          	loadsp 52
     9eb:	8c          	im 12
     9ec:	1b          	addsp 44
     9ed:	23          	storeh

000009ee <.LM75>:
     9ee:	ff          	im -1
     9ef:	55          	storesp 20
     9f0:	fe          	im -2
     9f1:	d7          	im -41
     9f2:	39          	poppcrel

000009f3 <.L88>:
     9f3:	75          	loadsp 20
     9f4:	53          	storesp 12
     9f5:	78          	loadsp 32
     9f6:	52          	storesp 8
     9f7:	77          	loadsp 28
     9f8:	51          	storesp 4
     9f9:	81          	im 1
     9fa:	dd          	im -35
     9fb:	3f          	callpcrel

000009fc <.LM77>:
     9fc:	79          	loadsp 36
     9fd:	08          	load
     9fe:	16          	addsp 24
     9ff:	7a          	loadsp 40
     a00:	0c          	store

00000a01 <.LM78>:
     a01:	79          	loadsp 36
     a02:	51          	storesp 4
     a03:	8d          	im 13
     a04:	95          	im 21
     a05:	3f          	callpcrel
     a06:	80          	im 0
     a07:	08          	load
     a08:	80          	im 0
     a09:	2e          	eq
     a0a:	fc          	im -4
     a0b:	d9          	im -39
     a0c:	38          	neqbranch

00000a0d <.LM79>:
     a0d:	8c          	im 12
     a0e:	1a          	addsp 40
     a0f:	22          	loadh
     a10:	80          	im 0
     a11:	c0          	im -64
     a12:	07          	or
     a13:	5e          	storesp 56
     a14:	7d          	loadsp 52
     a15:	8c          	im 12
     a16:	1b          	addsp 44
     a17:	23          	storeh

00000a18 <.LM80>:
     a18:	ff          	im -1
     a19:	55          	storesp 20
     a1a:	fe          	im -2
     a1b:	ad          	im 45
     a1c:	39          	poppcrel

00000a1d <.L33>:
     a1d:	76          	loadsp 24

00000a1e <.LM82>:
     a1e:	77          	loadsp 28
     a1f:	54          	storesp 16
     a20:	79          	loadsp 36
     a21:	53          	storesp 12
     a22:	78          	loadsp 32
     a23:	52          	storesp 8
     a24:	56          	storesp 24
     a25:	81          	im 1
     a26:	b1          	im 49
     a27:	3f          	callpcrel

00000a28 <.LM83>:
     a28:	88          	im 8
     a29:	1a          	addsp 40
     a2a:	08          	load
     a2b:	77          	loadsp 28
     a2c:	31          	sub
     a2d:	88          	im 8
     a2e:	1b          	addsp 44
     a2f:	0c          	store

00000a30 <.LM84>:
     a30:	79          	loadsp 36
     a31:	08          	load
     a32:	17          	addsp 28
     a33:	7a          	loadsp 40
     a34:	0c          	store
     a35:	fc          	im -4
     a36:	ae          	im 46
     a37:	39          	poppcrel

00000a38 <memchr>:
     a38:	fa          	im -6
     a39:	3d          	pushspadd
     a3a:	0d          	popsp
     a3b:	7a          	loadsp 40

00000a3c <.LM2>:
     a3c:	79          	loadsp 36

00000a3d <.LM3>:
     a3d:	02          	pushsp
     a3e:	88          	im 8
     a3f:	05          	add
     a40:	a7          	im 39
     a41:	05          	add
     a42:	33          	loadb
     a43:	55          	storesp 20
     a44:	53          	storesp 12
     a45:	54          	storesp 16

00000a46 <.LM4>:
     a46:	83          	im 3
     a47:	74          	loadsp 16
     a48:	27          	ulessthanorequal
     a49:	80          	im 0
     a4a:	df          	im -33
     a4b:	38          	neqbranch
     a4c:	71          	loadsp 4
     a4d:	83          	im 3
     a4e:	06          	and
     a4f:	51          	storesp 4
     a50:	70          	loadsp 0
     a51:	80          	im 0
     a52:	d7          	im -41
     a53:	38          	neqbranch

00000a54 <.LM5>:
     a54:	71          	loadsp 4

00000a55 <.LM6>:
     a55:	71          	loadsp 4
     a56:	57          	storesp 28
     a57:	55          	storesp 20
     a58:	83          	im 3
     a59:	51          	storesp 4

00000a5a <.L6>:
     a5a:	75          	loadsp 20
     a5b:	82          	im 2
     a5c:	80          	im 0
     a5d:	29          	mult
     a5e:	13          	addsp 12

00000a5f <.LM8>:
     a5f:	ff          	im -1
     a60:	12          	addsp 8
     a61:	52          	storesp 8
     a62:	56          	storesp 24
     a63:	70          	loadsp 0
     a64:	80          	im 0
     a65:	25          	lessthanorequal
     a66:	f3          	im -13
     a67:	38          	neqbranch

00000a68 <.LM9>:
     a68:	83          	im 3
     a69:	74          	loadsp 16
     a6a:	27          	ulessthanorequal
     a6b:	bc          	im 60
     a6c:	38          	neqbranch

00000a6d <.L38>:
     a6d:	74          	loadsp 16
     a6e:	08          	load
     a6f:	76          	loadsp 24
     a70:	32          	xor

00000a71 <.LM11>:
     a71:	70          	loadsp 0
     a72:	09          	not
     a73:	f7          	im -9
     a74:	fb          	im -5
     a75:	fd          	im -3
     a76:	ff          	im -1
     a77:	12          	addsp 8
     a78:	06          	and
     a79:	f8          	im -8
     a7a:	84          	im 4
     a7b:	82          	im 2
     a7c:	81          	im 1
     a7d:	80          	im 0
     a7e:	06          	and
     a7f:	51          	storesp 4
     a80:	51          	storesp 4
     a81:	70          	loadsp 0
     a82:	80          	im 0
     a83:	2e          	eq
     a84:	98          	im 24
     a85:	38          	neqbranch

00000a86 <.LM12>:
     a86:	74          	loadsp 16
     a87:	51          	storesp 4

00000a88 <.LM13>:
     a88:	80          	im 0
     a89:	52          	storesp 8

00000a8a <.L14>:
     a8a:	70          	loadsp 0
     a8b:	33          	loadb
     a8c:	57          	storesp 28
     a8d:	72          	loadsp 8
     a8e:	77          	loadsp 28
     a8f:	2e          	eq
     a90:	b9          	im 57
     a91:	38          	neqbranch

00000a92 <.LM15>:
     a92:	81          	im 1
     a93:	11          	addsp 4

00000a94 <.LM16>:
     a94:	81          	im 1
     a95:	13          	addsp 12
     a96:	53          	storesp 12
     a97:	51          	storesp 4
     a98:	83          	im 3
     a99:	72          	loadsp 8
     a9a:	27          	ulessthanorequal
     a9b:	ee          	im -18
     a9c:	38          	neqbranch

00000a9d <.L9>:
     a9d:	fc          	im -4
     a9e:	14          	addsp 16

00000a9f <.LM18>:
     a9f:	84          	im 4
     aa0:	16          	addsp 24
     aa1:	56          	storesp 24
     aa2:	54          	storesp 16
     aa3:	73          	loadsp 12
     aa4:	83          	im 3
     aa5:	26          	ulessthan
     aa6:	c6          	im -58
     aa7:	38          	neqbranch

00000aa8 <.L23>:
     aa8:	74          	loadsp 16
     aa9:	52          	storesp 8

00000aaa <.L2>:
     aaa:	ff          	im -1
     aab:	14          	addsp 16
     aac:	51          	storesp 4
     aad:	70          	loadsp 0
     aae:	ff          	im -1
     aaf:	2e          	eq
     ab0:	97          	im 23
     ab1:	38          	neqbranch

00000ab2 <.L40>:
     ab2:	71          	loadsp 4
     ab3:	33          	loadb
     ab4:	54          	storesp 16
     ab5:	72          	loadsp 8
     ab6:	74          	loadsp 16
     ab7:	2e          	eq
     ab8:	98          	im 24
     ab9:	38          	neqbranch

00000aba <.LM22>:
     aba:	81          	im 1
     abb:	12          	addsp 8
     abc:	ff          	im -1
     abd:	12          	addsp 8
     abe:	52          	storesp 8
     abf:	52          	storesp 8
     ac0:	70          	loadsp 0
     ac1:	ff          	im -1
     ac2:	2e          	eq
     ac3:	09          	not
     ac4:	81          	im 1
     ac5:	06          	and
     ac6:	eb          	im -21
     ac7:	38          	neqbranch

00000ac8 <.L26>:
     ac8:	80          	im 0
     ac9:	51          	storesp 4

00000aca <.L1>:
     aca:	70          	loadsp 0
     acb:	80          	im 0
     acc:	0c          	store
     acd:	88          	im 8
     ace:	3d          	pushspadd
     acf:	0d          	popsp
     ad0:	04          	poppc

00000ad1 <.L39>:
     ad1:	71          	loadsp 4

00000ad2 <.LM26>:
     ad2:	80          	im 0
     ad3:	0c          	store
     ad4:	88          	im 8
     ad5:	3d          	pushspadd
     ad6:	0d          	popsp
     ad7:	04          	poppc

00000ad8 <memmove>:
     ad8:	fa          	im -6
     ad9:	3d          	pushspadd
     ada:	0d          	popsp
     adb:	78          	loadsp 32
     adc:	7a          	loadsp 40
     add:	7c          	loadsp 48

00000ade <.LM2>:
     ade:	72          	loadsp 8

00000adf <.LM3>:
     adf:	72          	loadsp 8

00000ae0 <.LM4>:
     ae0:	72          	loadsp 8
     ae1:	59          	storesp 36
     ae2:	57          	storesp 28
     ae3:	55          	storesp 20
     ae4:	58          	storesp 32
     ae5:	56          	storesp 24
     ae6:	57          	storesp 28

00000ae7 <.LM5>:
     ae7:	74          	loadsp 16
     ae8:	77          	loadsp 28
     ae9:	27          	ulessthanorequal
     aea:	b2          	im 50
     aeb:	38          	neqbranch
     aec:	75          	loadsp 20
     aed:	15          	addsp 20
     aee:	51          	storesp 4
     aef:	76          	loadsp 24
     af0:	71          	loadsp 4
     af1:	27          	ulessthanorequal
     af2:	aa          	im 42
     af3:	38          	neqbranch

00000af4 <.LM6>:
     af4:	70          	loadsp 0

00000af5 <.LM7>:
     af5:	76          	loadsp 24
     af6:	18          	addsp 32

00000af7 <.LM8>:
     af7:	ff          	im -1
     af8:	18          	addsp 32
     af9:	53          	storesp 12
     afa:	53          	storesp 12
     afb:	53          	storesp 12
     afc:	70          	loadsp 0
     afd:	ff          	im -1
     afe:	2e          	eq
     aff:	96          	im 22
     b00:	38          	neqbranch

00000b01 <.L38>:
     b01:	ff          	im -1
     b02:	12          	addsp 8
     b03:	ff          	im -1
     b04:	14          	addsp 16
     b05:	54          	storesp 16
     b06:	52          	storesp 8
     b07:	72          	loadsp 8
     b08:	33          	loadb
     b09:	72          	loadsp 8
     b0a:	34          	storeb
     b0b:	ff          	im -1
     b0c:	11          	addsp 4
     b0d:	51          	storesp 4
     b0e:	70          	loadsp 0
     b0f:	ff          	im -1
     b10:	2e          	eq
     b11:	09          	not
     b12:	81          	im 1
     b13:	06          	and
     b14:	ec          	im -20
     b15:	38          	neqbranch

00000b16 <.L6>:
     b16:	76          	loadsp 24
     b17:	80          	im 0
     b18:	0c          	store
     b19:	88          	im 8
     b1a:	3d          	pushspadd
     b1b:	0d          	popsp
     b1c:	04          	poppc

00000b1d <.L2>:
     b1d:	8f          	im 15
     b1e:	76          	loadsp 24
     b1f:	27          	ulessthanorequal
     b20:	80          	im 0
     b21:	e6          	im -26
     b22:	38          	neqbranch
     b23:	74          	loadsp 16
     b24:	77          	loadsp 28
     b25:	07          	or
     b26:	83          	im 3
     b27:	06          	and
     b28:	51          	storesp 4
     b29:	70          	loadsp 0
     b2a:	80          	im 0
     b2b:	dc          	im -36
     b2c:	38          	neqbranch

00000b2d <.LM11>:
     b2d:	76          	loadsp 24

00000b2e <.LM12>:
     b2e:	75          	loadsp 20
     b2f:	52          	storesp 8
     b30:	53          	storesp 12

00000b31 <.L10>:
     b31:	70          	loadsp 0
     b32:	70          	loadsp 0
     b33:	84          	im 4
     b34:	05          	add
     b35:	52          	storesp 8
     b36:	08          	load
     b37:	73          	loadsp 12
     b38:	70          	loadsp 0
     b39:	84          	im 4
     b3a:	05          	add
     b3b:	55          	storesp 20
     b3c:	0c          	store
     b3d:	72          	loadsp 8

00000b3e <.LM14>:
     b3e:	71          	loadsp 4
     b3f:	70          	loadsp 0
     b40:	84          	im 4
     b41:	05          	add
     b42:	53          	storesp 12
     b43:	08          	load
     b44:	71          	loadsp 4
     b45:	70          	loadsp 0
     b46:	84          	im 4
     b47:	05          	add
     b48:	53          	storesp 12
     b49:	0c          	store

00000b4a <.LM15>:
     b4a:	71          	loadsp 4
     b4b:	70          	loadsp 0
     b4c:	84          	im 4
     b4d:	05          	add
     b4e:	53          	storesp 12
     b4f:	08          	load
     b50:	71          	loadsp 4
     b51:	70          	loadsp 0
     b52:	84          	im 4
     b53:	05          	add
     b54:	53          	storesp 12
     b55:	0c          	store

00000b56 <.LM16>:
     b56:	71          	loadsp 4
     b57:	70          	loadsp 0
     b58:	84          	im 4
     b59:	05          	add
     b5a:	53          	storesp 12
     b5b:	08          	load
     b5c:	71          	loadsp 4
     b5d:	70          	loadsp 0
     b5e:	84          	im 4
     b5f:	05          	add
     b60:	53          	storesp 12
     b61:	0c          	store

00000b62 <.LM17>:
     b62:	f0          	im -16
     b63:	15          	addsp 20
     b64:	55          	storesp 20
     b65:	53          	storesp 12
     b66:	73          	loadsp 12
     b67:	8f          	im 15
     b68:	26          	ulessthan
     b69:	c7          	im -57
     b6a:	38          	neqbranch

00000b6b <.LM18>:
     b6b:	83          	im 3
     b6c:	74          	loadsp 16
     b6d:	27          	ulessthanorequal
     b6e:	95          	im 21
     b6f:	38          	neqbranch

00000b70 <.L39>:
     b70:	70          	loadsp 0
     b71:	70          	loadsp 0
     b72:	84          	im 4
     b73:	05          	add
     b74:	52          	storesp 8
     b75:	08          	load
     b76:	73          	loadsp 12
     b77:	70          	loadsp 0
     b78:	84          	im 4
     b79:	05          	add
     b7a:	55          	storesp 20
     b7b:	0c          	store

00000b7c <.LM20>:
     b7c:	fc          	im -4
     b7d:	14          	addsp 16
     b7e:	54          	storesp 16
     b7f:	73          	loadsp 12
     b80:	83          	im 3
     b81:	26          	ulessthan
     b82:	ed          	im -19
     b83:	38          	neqbranch

00000b84 <.L22>:
     b84:	72          	loadsp 8

00000b85 <.LM22>:
     b85:	71          	loadsp 4
     b86:	54          	storesp 16
     b87:	52          	storesp 8

00000b88 <.L7>:
     b88:	ff          	im -1
     b89:	14          	addsp 16
     b8a:	51          	storesp 4

00000b8b <.L36>:
     b8b:	70          	loadsp 0
     b8c:	ff          	im -1
     b8d:	2e          	eq
     b8e:	ff          	im -1
     b8f:	86          	im 6
     b90:	38          	neqbranch
     b91:	72          	loadsp 8
     b92:	70          	loadsp 0
     b93:	81          	im 1
     b94:	05          	add
     b95:	54          	storesp 16
     b96:	33          	loadb
     b97:	72          	loadsp 8
     b98:	70          	loadsp 0
     b99:	81          	im 1
     b9a:	05          	add
     b9b:	54          	storesp 16
     b9c:	34          	storeb
     b9d:	ff          	im -1
     b9e:	11          	addsp 4
     b9f:	51          	storesp 4
     ba0:	ea          	im -22
     ba1:	39          	poppcrel

00000ba2 <_realloc_r>:
     ba2:	ef          	im -17
     ba3:	3d          	pushspadd
     ba4:	0d          	popsp
     ba5:	63          	loadsp 76
     ba6:	65          	loadsp 84
     ba7:	67          	loadsp 92
     ba8:	40          	storesp 64
     ba9:	5d          	storesp 52
     baa:	42          	storesp 72

00000bab <.LM2>:
     bab:	7b          	loadsp 44
     bac:	80          	im 0
     bad:	2e          	eq
     bae:	85          	im 5
     baf:	82          	im 2
     bb0:	38          	neqbranch

00000bb1 <.LM3>:
     bb1:	61          	loadsp 68
     bb2:	51          	storesp 4
     bb3:	a9          	im 41
     bb4:	e7          	im -25
     bb5:	3f          	callpcrel

00000bb6 <.LM4>:
     bb6:	f8          	im -8
     bb7:	1c          	addsp 48
     bb8:	70          	loadsp 0

00000bb9 <.LM5>:
     bb9:	84          	im 4
     bba:	12          	addsp 8
     bbb:	08          	load
     bbc:	70          	loadsp 0
     bbd:	fc          	im -4
     bbe:	06          	and
     bbf:	70          	loadsp 0

00000bc0 <.LM6>:
     bc0:	62          	loadsp 72
     bc1:	8b          	im 11
     bc2:	05          	add
     bc3:	70          	loadsp 0
     bc4:	f8          	im -8
     bc5:	06          	and
     bc6:	41          	storesp 68
     bc7:	59          	storesp 36
     bc8:	45          	storesp 84
     bc9:	5c          	storesp 48
     bca:	5f          	storesp 60
     bcb:	41          	storesp 68
     bcc:	57          	storesp 28
     bcd:	96          	im 22
     bce:	74          	loadsp 16
     bcf:	27          	ulessthanorequal
     bd0:	82          	im 2
     bd1:	c5          	im -59
     bd2:	38          	neqbranch

00000bd3 <.L4>:
     bd3:	80          	im 0
     bd4:	7b          	loadsp 44
     bd5:	24          	lessthan
     bd6:	7e          	loadsp 56
     bd7:	7c          	loadsp 48
     bd8:	26          	ulessthan
     bd9:	07          	or
     bda:	58          	storesp 32

00000bdb <.LM8>:
     bdb:	80          	im 0
     bdc:	54          	storesp 16

00000bdd <.LM9>:
     bdd:	77          	loadsp 28
     bde:	74          	loadsp 16
     bdf:	2e          	eq
     be0:	09          	not
     be1:	81          	im 1
     be2:	06          	and
     be3:	82          	im 2
     be4:	ab          	im 43
     be5:	38          	neqbranch

00000be6 <.LM10>:
     be6:	78          	loadsp 32
     be7:	7b          	loadsp 44
     be8:	25          	lessthanorequal
     be9:	81          	im 1
     bea:	fe          	im -2
     beb:	38          	neqbranch

00000bec <.LM11>:
     bec:	78          	loadsp 32
     bed:	17          	addsp 28

00000bee <.LM12>:
     bee:	80          	im 0
     bef:	d7          	im -41
     bf0:	a0          	im 32
     bf1:	0b          	nop
     bf2:	88          	im 8
     bf3:	05          	add
     bf4:	08          	load
     bf5:	5b          	storesp 44
     bf6:	56          	storesp 24
     bf7:	79          	loadsp 36
     bf8:	76          	loadsp 24
     bf9:	2e          	eq
     bfa:	84          	im 4
     bfb:	c5          	im -59
     bfc:	38          	neqbranch
     bfd:	84          	im 4
     bfe:	16          	addsp 24
     bff:	08          	load
     c00:	70          	loadsp 0
     c01:	fe          	im -2
     c02:	06          	and
     c03:	17          	addsp 28
     c04:	84          	im 4
     c05:	11          	addsp 4
     c06:	08          	load
     c07:	81          	im 1
     c08:	06          	and
     c09:	41          	storesp 68
     c0a:	55          	storesp 20
     c0b:	55          	storesp 20
     c0c:	7e          	loadsp 56
     c0d:	82          	im 2
     c0e:	8d          	im 13
     c0f:	38          	neqbranch

00000c10 <.L10>:
     c10:	74          	loadsp 16
     c11:	fc          	im -4
     c12:	06          	and
     c13:	58          	storesp 32

00000c14 <.LM14>:
     c14:	79          	loadsp 36
     c15:	76          	loadsp 24
     c16:	2e          	eq
     c17:	84          	im 4
     c18:	e3          	im -29
     c19:	38          	neqbranch

00000c1a <.LM15>:
     c1a:	78          	loadsp 32
     c1b:	18          	addsp 32
     c1c:	5f          	storesp 60
     c1d:	7e          	loadsp 56
     c1e:	7b          	loadsp 44
     c1f:	25          	lessthanorequal
     c20:	81          	im 1
     c21:	ff          	im -1
     c22:	38          	neqbranch

00000c23 <.L16>:
     c23:	7c          	loadsp 48
     c24:	81          	im 1
     c25:	06          	and
     c26:	54          	storesp 16
     c27:	73          	loadsp 12
     c28:	82          	im 2
     c29:	c1          	im -63
     c2a:	38          	neqbranch

00000c2b <.LM17>:
     c2b:	76          	loadsp 24
     c2c:	77          	loadsp 28
     c2d:	08          	load
     c2e:	31          	sub

00000c2f <.LM18>:
     c2f:	84          	im 4
     c30:	11          	addsp 4
     c31:	08          	load
     c32:	fc          	im -4
     c33:	06          	and
     c34:	56          	storesp 24
     c35:	57          	storesp 28

00000c36 <.LM19>:
     c36:	75          	loadsp 20
     c37:	80          	im 0
     c38:	2e          	eq
     c39:	91          	im 17
     c3a:	38          	neqbranch

00000c3b <.LM20>:
     c3b:	79          	loadsp 36
     c3c:	76          	loadsp 24
     c3d:	2e          	eq
     c3e:	84          	im 4
     c3f:	f0          	im -16
     c40:	38          	neqbranch

00000c41 <.LM21>:
     c41:	74          	loadsp 16
     c42:	18          	addsp 32
     c43:	19          	addsp 36
     c44:	58          	storesp 32
     c45:	77          	loadsp 28
     c46:	7b          	loadsp 44
     c47:	25          	lessthanorequal
     c48:	84          	im 4
     c49:	91          	im 17
     c4a:	38          	neqbranch

00000c4b <.L18>:
     c4b:	76          	loadsp 24
     c4c:	80          	im 0
     c4d:	2e          	eq
     c4e:	82          	im 2
     c4f:	9b          	im 27
     c50:	38          	neqbranch
     c51:	78          	loadsp 32
     c52:	15          	addsp 20
     c53:	56          	storesp 24
     c54:	7a          	loadsp 40
     c55:	76          	loadsp 24
     c56:	24          	lessthan
     c57:	82          	im 2
     c58:	92          	im 18
     c59:	38          	neqbranch

00000c5a <.LM23>:
     c5a:	8c          	im 12
     c5b:	17          	addsp 28
     c5c:	08          	load
     c5d:	88          	im 8
     c5e:	18          	addsp 32
     c5f:	08          	load
     c60:	71          	loadsp 4
     c61:	8c          	im 12
     c62:	12          	addsp 8
     c63:	0c          	store
     c64:	88          	im 8
     c65:	12          	addsp 8
     c66:	0c          	store
     c67:	5e          	storesp 56

00000c68 <.LM24>:
     c68:	75          	loadsp 20
     c69:	59          	storesp 36

00000c6a <.L58>:
     c6a:	88          	im 8
     c6b:	17          	addsp 28

00000c6c <.LM26>:
     c6c:	61          	loadsp 68
     c6d:	fc          	im -4
     c6e:	05          	add
     c6f:	5b          	storesp 44
     c70:	56          	storesp 24
     c71:	79          	loadsp 36
     c72:	a4          	im 36
     c73:	26          	ulessthan
     c74:	85          	im 5
     c75:	ff          	im -1
     c76:	38          	neqbranch

00000c77 <.LBB3>:
     c77:	7b          	loadsp 44
     c78:	76          	loadsp 24
     c79:	59          	storesp 36
     c7a:	55          	storesp 20
     c7b:	93          	im 19
     c7c:	7a          	loadsp 40
     c7d:	27          	ulessthanorequal
     c7e:	80          	im 0
     c7f:	c9          	im -55
     c80:	38          	neqbranch
     c81:	7b          	loadsp 44
     c82:	70          	loadsp 0
     c83:	84          	im 4
     c84:	05          	add
     c85:	5d          	storesp 52
     c86:	08          	load
     c87:	7c          	loadsp 48
     c88:	56          	storesp 24
     c89:	76          	loadsp 24
     c8a:	0c          	store
     c8b:	74          	loadsp 16
     c8c:	70          	loadsp 0
     c8d:	84          	im 4
     c8e:	05          	add
     c8f:	56          	storesp 24
     c90:	08          	load
     c91:	8c          	im 12
     c92:	18          	addsp 32
     c93:	0c          	store
     c94:	90          	im 16
     c95:	17          	addsp 28
     c96:	58          	storesp 32
     c97:	9b          	im 27
     c98:	7a          	loadsp 40
     c99:	27          	ulessthanorequal
     c9a:	ae          	im 46
     c9b:	38          	neqbranch
     c9c:	74          	loadsp 16
     c9d:	70          	loadsp 0
     c9e:	84          	im 4
     c9f:	05          	add
     ca0:	56          	storesp 24
     ca1:	08          	load
     ca2:	78          	loadsp 32
     ca3:	0c          	store
     ca4:	74          	loadsp 16
     ca5:	70          	loadsp 0
     ca6:	84          	im 4
     ca7:	05          	add
     ca8:	56          	storesp 24
     ca9:	08          	load
     caa:	94          	im 20
     cab:	18          	addsp 32
     cac:	0c          	store
     cad:	98          	im 24
     cae:	17          	addsp 28
     caf:	58          	storesp 32
     cb0:	a3          	im 35
     cb1:	7a          	loadsp 40
     cb2:	27          	ulessthanorequal
     cb3:	95          	im 21
     cb4:	38          	neqbranch
     cb5:	74          	loadsp 16
     cb6:	70          	loadsp 0
     cb7:	84          	im 4
     cb8:	05          	add
     cb9:	56          	storesp 24
     cba:	08          	load
     cbb:	78          	loadsp 32
     cbc:	0c          	store
     cbd:	74          	loadsp 16
     cbe:	70          	loadsp 0
     cbf:	84          	im 4
     cc0:	05          	add
     cc1:	56          	storesp 24
     cc2:	08          	load
     cc3:	9c          	im 28
     cc4:	18          	addsp 32
     cc5:	0c          	store
     cc6:	a0          	im 32
     cc7:	17          	addsp 28
     cc8:	58          	storesp 32

00000cc9 <.L38>:
     cc9:	74          	loadsp 16
     cca:	70          	loadsp 0
     ccb:	84          	im 4
     ccc:	05          	add
     ccd:	56          	storesp 24
     cce:	08          	load
     ccf:	75          	loadsp 20
     cd0:	5f          	storesp 60
     cd1:	78          	loadsp 32
     cd2:	70          	loadsp 0
     cd3:	84          	im 4
     cd4:	05          	add
     cd5:	5a          	storesp 40
     cd6:	0c          	store
     cd7:	77          	loadsp 28
     cd8:	7e          	loadsp 56
     cd9:	70          	loadsp 0
     cda:	84          	im 4
     cdb:	05          	add
     cdc:	40          	storesp 64
     cdd:	08          	load
     cde:	71          	loadsp 4
     cdf:	70          	loadsp 0
     ce0:	84          	im 4
     ce1:	05          	add
     ce2:	53          	storesp 12
     ce3:	0c          	store
     ce4:	7e          	loadsp 56
     ce5:	08          	load
     ce6:	71          	loadsp 4
     ce7:	0c          	store
     ce8:	5d          	storesp 52

00000ce9 <.L15>:
     ce9:	78          	loadsp 32
     cea:	7b          	loadsp 44
     ceb:	31          	sub
     cec:	56          	storesp 24

00000ced <.LM28>:
     ced:	75          	loadsp 20
     cee:	8f          	im 15
     cef:	26          	ulessthan
     cf0:	80          	im 0
     cf1:	c9          	im -55
     cf2:	38          	neqbranch

00000cf3 <.L50>:
     cf3:	84          	im 4
     cf4:	17          	addsp 28
     cf5:	08          	load
     cf6:	81          	im 1
     cf7:	06          	and
     cf8:	79          	loadsp 36
     cf9:	07          	or
     cfa:	84          	im 4
     cfb:	18          	addsp 32
     cfc:	0c          	store

00000cfd <.LM30>:
     cfd:	78          	loadsp 32
     cfe:	17          	addsp 28
     cff:	84          	im 4
     d00:	11          	addsp 4
     d01:	08          	load
     d02:	81          	im 1
     d03:	07          	or
     d04:	84          	im 4
     d05:	12          	addsp 8
     d06:	0c          	store
     d07:	5b          	storesp 44

00000d08 <.LM31>:
     d08:	61          	loadsp 68
     d09:	51          	storesp 4
     d0a:	a7          	im 39
     d0b:	91          	im 17
     d0c:	3f          	callpcrel

00000d0d <.LM32>:
     d0d:	88          	im 8
     d0e:	17          	addsp 28
     d0f:	54          	storesp 16

00000d10 <.L1>:
     d10:	73          	loadsp 12
     d11:	80          	im 0
     d12:	0c          	store
     d13:	93          	im 19
     d14:	3d          	pushspadd
     d15:	0d          	popsp
     d16:	04          	poppc

00000d17 <.L61>:
     d17:	90          	im 16
     d18:	5b          	storesp 44
     d19:	fd          	im -3
     d1a:	b8          	im 56
     d1b:	39          	poppcrel

00000d1c <.L9>:
     d1c:	77          	loadsp 28
     d1d:	56          	storesp 24

00000d1e <.LM36>:
     d1e:	fe          	im -2
     d1f:	83          	im 3
     d20:	39          	poppcrel

00000d21 <.L63>:
     d21:	8c          	im 12
     d22:	16          	addsp 24
     d23:	08          	load
     d24:	88          	im 8
     d25:	17          	addsp 28
     d26:	08          	load
     d27:	71          	loadsp 4
     d28:	8c          	im 12
     d29:	12          	addsp 8
     d2a:	0c          	store
     d2b:	88          	im 8
     d2c:	12          	addsp 8
     d2d:	0c          	store
     d2e:	58          	storesp 32

00000d2f <.LM38>:
     d2f:	7e          	loadsp 56

00000d30 <.LM39>:
     d30:	70          	loadsp 0
     d31:	7c          	loadsp 48
     d32:	31          	sub
     d33:	57          	storesp 28
     d34:	59          	storesp 36

00000d35 <.LM40>:
     d35:	8f          	im 15
     d36:	76          	loadsp 24
     d37:	27          	ulessthanorequal
     d38:	ff          	im -1
     d39:	b9          	im 57
     d3a:	38          	neqbranch

00000d3b <.L66>:
     d3b:	7a          	loadsp 40
     d3c:	17          	addsp 28

00000d3d <.LM42>:
     d3d:	84          	im 4
     d3e:	18          	addsp 32
     d3f:	08          	load
     d40:	81          	im 1
     d41:	06          	and
     d42:	7c          	loadsp 48
     d43:	07          	or
     d44:	84          	im 4
     d45:	19          	addsp 36
     d46:	0c          	store

00000d47 <.LM43>:
     d47:	76          	loadsp 24
     d48:	81          	im 1
     d49:	07          	or
     d4a:	84          	im 4
     d4b:	12          	addsp 8
     d4c:	0c          	store

00000d4d <.LM44>:
     d4d:	76          	loadsp 24
     d4e:	11          	addsp 4
     d4f:	84          	im 4
     d50:	11          	addsp 4
     d51:	08          	load
     d52:	81          	im 1
     d53:	07          	or
     d54:	84          	im 4
     d55:	12          	addsp 8
     d56:	0c          	store
     d57:	5b          	storesp 44

00000d58 <.LM45>:
     d58:	88          	im 8
     d59:	05          	add
     d5a:	52          	storesp 8
     d5b:	61          	loadsp 68
     d5c:	51          	storesp 4
     d5d:	8f          	im 15
     d5e:	da          	im -38
     d5f:	3f          	callpcrel

00000d60 <.LM46>:
     d60:	61          	loadsp 68
     d61:	51          	storesp 4
     d62:	a6          	im 38
     d63:	b9          	im 57
     d64:	3f          	callpcrel

00000d65 <.LM47>:
     d65:	88          	im 8
     d66:	17          	addsp 28
     d67:	54          	storesp 16
     d68:	ff          	im -1
     d69:	a6          	im 38
     d6a:	39          	poppcrel

00000d6b <.L17>:
     d6b:	7d          	loadsp 52
     d6c:	52          	storesp 8
     d6d:	61          	loadsp 68
     d6e:	51          	storesp 4
     d6f:	97          	im 23
     d70:	d7          	im -41
     d71:	3f          	callpcrel
     d72:	80          	im 0
     d73:	08          	load
     d74:	5a          	storesp 40

00000d75 <.LM49>:
     d75:	80          	im 0
     d76:	08          	load
     d77:	80          	im 0
     d78:	2e          	eq
     d79:	81          	im 1
     d7a:	ab          	im 43
     d7b:	38          	neqbranch

00000d7c <.LM50>:
     d7c:	80          	im 0
     d7d:	08          	load
     d7e:	f8          	im -8
     d7f:	05          	add
     d80:	60          	loadsp 64
     d81:	84          	im 4
     d82:	05          	add
     d83:	08          	load
     d84:	fe          	im -2
     d85:	06          	and
     d86:	61          	loadsp 68
     d87:	05          	add
     d88:	58          	storesp 32
     d89:	55          	storesp 20
     d8a:	74          	loadsp 16
     d8b:	77          	loadsp 28
     d8c:	2e          	eq
     d8d:	83          	im 3
     d8e:	f2          	im -14
     d8f:	38          	neqbranch

00000d90 <.LM51>:
     d90:	fc          	im -4
     d91:	19          	addsp 36
     d92:	58          	storesp 32
     d93:	77          	loadsp 28
     d94:	a4          	im 36
     d95:	26          	ulessthan
     d96:	81          	im 1
     d97:	b0          	im 48
     d98:	38          	neqbranch

00000d99 <.LBB5>:
     d99:	7b          	loadsp 44
     d9a:	80          	im 0
     d9b:	08          	load
     d9c:	56          	storesp 24
     d9d:	57          	storesp 28
     d9e:	93          	im 19
     d9f:	78          	loadsp 32
     da0:	27          	ulessthanorequal
     da1:	80          	im 0
     da2:	dc          	im -36
     da3:	38          	neqbranch
     da4:	7b          	loadsp 44
     da5:	70          	loadsp 0
     da6:	70          	loadsp 0
     da7:	84          	im 4
     da8:	05          	add
     da9:	52          	storesp 8
     daa:	08          	load
     dab:	80          	im 0
     dac:	08          	load
     dad:	70          	loadsp 0
     dae:	84          	im 4
     daf:	05          	add
     db0:	80          	im 0
     db1:	0c          	store
     db2:	0c          	store
     db3:	80          	im 0
     db4:	08          	load
     db5:	71          	loadsp 4
     db6:	70          	loadsp 0
     db7:	84          	im 4
     db8:	05          	add
     db9:	53          	storesp 12
     dba:	08          	load
     dbb:	5d          	storesp 52
     dbc:	56          	storesp 24
     dbd:	7b          	loadsp 44
     dbe:	76          	loadsp 24
     dbf:	70          	loadsp 0
     dc0:	84          	im 4
     dc1:	05          	add
     dc2:	58          	storesp 32
     dc3:	0c          	store
     dc4:	57          	storesp 28
     dc5:	9b          	im 27
     dc6:	78          	loadsp 32
     dc7:	27          	ulessthanorequal
     dc8:	b6          	im 54
     dc9:	38          	neqbranch
     dca:	76          	loadsp 24
     dcb:	70          	loadsp 0
     dcc:	84          	im 4
     dcd:	05          	add
     dce:	58          	storesp 32
     dcf:	08          	load
     dd0:	75          	loadsp 20
     dd1:	70          	loadsp 0
     dd2:	84          	im 4
     dd3:	05          	add
     dd4:	57          	storesp 28
     dd5:	0c          	store
     dd6:	76          	loadsp 24
     dd7:	70          	loadsp 0
     dd8:	84          	im 4
     dd9:	05          	add
     dda:	58          	storesp 32
     ddb:	08          	load
     ddc:	75          	loadsp 20
     ddd:	70          	loadsp 0
     dde:	84          	im 4
     ddf:	05          	add
     de0:	57          	storesp 28
     de1:	0c          	store
     de2:	a3          	im 35
     de3:	78          	loadsp 32
     de4:	27          	ulessthanorequal
     de5:	99          	im 25
     de6:	38          	neqbranch
     de7:	76          	loadsp 24
     de8:	70          	loadsp 0
     de9:	84          	im 4
     dea:	05          	add
     deb:	58          	storesp 32
     dec:	08          	load
     ded:	75          	loadsp 20
     dee:	70          	loadsp 0
     def:	84          	im 4
     df0:	05          	add
     df1:	57          	storesp 28
     df2:	0c          	store
     df3:	76          	loadsp 24
     df4:	70          	loadsp 0
     df5:	84          	im 4
     df6:	05          	add
     df7:	58          	storesp 32
     df8:	08          	load
     df9:	75          	loadsp 20
     dfa:	70          	loadsp 0
     dfb:	84          	im 4
     dfc:	05          	add
     dfd:	57          	storesp 28
     dfe:	0c          	store

00000dff <.L46>:
     dff:	76          	loadsp 24
     e00:	70          	loadsp 0
     e01:	84          	im 4
     e02:	05          	add
     e03:	58          	storesp 32
     e04:	08          	load
     e05:	77          	loadsp 28
     e06:	5e          	storesp 56
     e07:	75          	loadsp 20
     e08:	70          	loadsp 0
     e09:	84          	im 4
     e0a:	05          	add
     e0b:	57          	storesp 28
     e0c:	0c          	store
     e0d:	74          	loadsp 16
     e0e:	7d          	loadsp 52
     e0f:	70          	loadsp 0
     e10:	84          	im 4
     e11:	05          	add
     e12:	5f          	storesp 60
     e13:	08          	load
     e14:	71          	loadsp 4
     e15:	70          	loadsp 0
     e16:	84          	im 4
     e17:	05          	add
     e18:	53          	storesp 12
     e19:	0c          	store
     e1a:	7d          	loadsp 52
     e1b:	08          	load
     e1c:	71          	loadsp 4
     e1d:	0c          	store
     e1e:	5f          	storesp 60

00000e1f <.LBE5>:
     e1f:	7b          	loadsp 44
     e20:	52          	storesp 8
     e21:	61          	loadsp 68
     e22:	51          	storesp 4
     e23:	8e          	im 14
     e24:	94          	im 20
     e25:	3f          	callpcrel

00000e26 <.L53>:
     e26:	61          	loadsp 68
     e27:	51          	storesp 4
     e28:	a4          	im 36
     e29:	f3          	im -13
     e2a:	3f          	callpcrel

00000e2b <.LM54>:
     e2b:	79          	loadsp 36

00000e2c <.LM55>:
     e2c:	80          	im 0
     e2d:	0c          	store
     e2e:	93          	im 19
     e2f:	3d          	pushspadd
     e30:	0d          	popsp
     e31:	04          	poppc

00000e32 <.L60>:
     e32:	7d          	loadsp 52
     e33:	52          	storesp 8
     e34:	61          	loadsp 68
     e35:	51          	storesp 4
     e36:	96          	im 22
     e37:	90          	im 16
     e38:	3f          	callpcrel
     e39:	80          	im 0
     e3a:	08          	load

00000e3b <.LM57>:
     e3b:	80          	im 0
     e3c:	0c          	store
     e3d:	93          	im 19
     e3e:	3d          	pushspadd
     e3f:	0d          	popsp
     e40:	04          	poppc

00000e41 <.L52>:
     e41:	84          	im 4
     e42:	16          	addsp 24
     e43:	08          	load
     e44:	55          	storesp 20
     e45:	fb          	im -5
     e46:	c9          	im -55
     e47:	39          	poppcrel

00000e48 <.L45>:
     e48:	77          	loadsp 28
     e49:	53          	storesp 12
     e4a:	7b          	loadsp 44
     e4b:	52          	storesp 8
     e4c:	80          	im 0
     e4d:	08          	load
     e4e:	51          	storesp 4
     e4f:	a2          	im 34
     e50:	a5          	im 37
     e51:	3f          	callpcrel

00000e52 <.LM59>:
     e52:	7b          	loadsp 44
     e53:	52          	storesp 8
     e54:	61          	loadsp 68
     e55:	51          	storesp 4
     e56:	8d          	im 13
     e57:	e1          	im -31
     e58:	3f          	callpcrel
     e59:	cc          	im -52
     e5a:	39          	poppcrel

00000e5b <.L65>:
     e5b:	8c          	im 12
     e5c:	16          	addsp 24
     e5d:	08          	load
     e5e:	88          	im 8
     e5f:	17          	addsp 28
     e60:	08          	load
     e61:	71          	loadsp 4
     e62:	8c          	im 12
     e63:	12          	addsp 8
     e64:	0c          	store
     e65:	88          	im 8
     e66:	12          	addsp 8
     e67:	0c          	store
     e68:	5d          	storesp 52

00000e69 <.LM61>:
     e69:	8c          	im 12
     e6a:	17          	addsp 28
     e6b:	08          	load
     e6c:	88          	im 8
     e6d:	18          	addsp 32
     e6e:	08          	load
     e6f:	71          	loadsp 4
     e70:	8c          	im 12
     e71:	12          	addsp 8
     e72:	0c          	store
     e73:	88          	im 8
     e74:	12          	addsp 8
     e75:	0c          	store
     e76:	59          	storesp 36

00000e77 <.LM62>:
     e77:	77          	loadsp 28
     e78:	59          	storesp 36
     e79:	fb          	im -5
     e7a:	ef          	im -17
     e7b:	39          	poppcrel

00000e7c <.L62>:
     e7c:	78          	loadsp 32
     e7d:	18          	addsp 32
     e7e:	90          	im 16
     e7f:	1c          	addsp 48
     e80:	40          	storesp 64
     e81:	55          	storesp 20
     e82:	7e          	loadsp 56
     e83:	75          	loadsp 20
     e84:	24          	lessthan
     e85:	fb          	im -5
     e86:	9c          	im 28
     e87:	38          	neqbranch

00000e88 <.LM64>:
     e88:	7a          	loadsp 40
     e89:	17          	addsp 28
     e8a:	70          	loadsp 0
     e8b:	80          	im 0
     e8c:	d7          	im -41
     e8d:	a0          	im 32
     e8e:	0b          	nop
     e8f:	88          	im 8
     e90:	05          	add
     e91:	0c          	store

00000e92 <.LM65>:
     e92:	75          	loadsp 20
     e93:	7c          	loadsp 48
     e94:	31          	sub
     e95:	81          	im 1
     e96:	07          	or
     e97:	84          	im 4
     e98:	12          	addsp 8
     e99:	0c          	store
     e9a:	56          	storesp 24

00000e9b <.LM66>:
     e9b:	84          	im 4
     e9c:	17          	addsp 28
     e9d:	08          	load
     e9e:	81          	im 1
     e9f:	06          	and
     ea0:	7b          	loadsp 44
     ea1:	07          	or
     ea2:	84          	im 4
     ea3:	18          	addsp 32
     ea4:	0c          	store

00000ea5 <.LM67>:
     ea5:	61          	loadsp 68
     ea6:	51          	storesp 4
     ea7:	a3          	im 35
     ea8:	f4          	im -12
     ea9:	3f          	callpcrel

00000eaa <.LM68>:
     eaa:	88          	im 8
     eab:	17          	addsp 28
     eac:	54          	storesp 16
     ead:	fc          	im -4
     eae:	e1          	im -31
     eaf:	39          	poppcrel

00000eb0 <.L64>:
     eb0:	74          	loadsp 16
     eb1:	18          	addsp 32
     eb2:	19          	addsp 36
     eb3:	90          	im 16
     eb4:	1c          	addsp 48
     eb5:	5e          	storesp 56
     eb6:	5a          	storesp 40
     eb7:	7c          	loadsp 48
     eb8:	7a          	loadsp 40
     eb9:	24          	lessthan
     eba:	fb          	im -5
     ebb:	8f          	im 15
     ebc:	38          	neqbranch

00000ebd <.LM70>:
     ebd:	8c          	im 12
     ebe:	17          	addsp 28
     ebf:	08          	load
     ec0:	88          	im 8
     ec1:	18          	addsp 32
     ec2:	08          	load
     ec3:	71          	loadsp 4
     ec4:	8c          	im 12
     ec5:	12          	addsp 8
     ec6:	0c          	store
     ec7:	88          	im 8
     ec8:	12          	addsp 8
     ec9:	0c          	store
     eca:	5e          	storesp 56

00000ecb <.LM71>:
     ecb:	88          	im 8
     ecc:	17          	addsp 28

00000ecd <.LM72>:
     ecd:	61          	loadsp 68
     ece:	fc          	im -4
     ecf:	05          	add
     ed0:	57          	storesp 28
     ed1:	59          	storesp 36
     ed2:	75          	loadsp 20
     ed3:	a4          	im 36
     ed4:	26          	ulessthan
     ed5:	81          	im 1
     ed6:	b6          	im 54
     ed7:	38          	neqbranch

00000ed8 <.LBB8>:
     ed8:	7b          	loadsp 44
     ed9:	79          	loadsp 36
     eda:	59          	storesp 36
     edb:	55          	storesp 20
     edc:	93          	im 19
     edd:	76          	loadsp 24
     ede:	27          	ulessthanorequal
     edf:	80          	im 0
     ee0:	c9          	im -55
     ee1:	38          	neqbranch
     ee2:	7b          	loadsp 44
     ee3:	70          	loadsp 0
     ee4:	84          	im 4
     ee5:	05          	add
     ee6:	5d          	storesp 52
     ee7:	08          	load
     ee8:	7c          	loadsp 48
     ee9:	56          	storesp 24
     eea:	79          	loadsp 36
     eeb:	0c          	store
     eec:	74          	loadsp 16
     eed:	70          	loadsp 0
     eee:	84          	im 4
     eef:	05          	add
     ef0:	56          	storesp 24
     ef1:	08          	load
     ef2:	8c          	im 12
     ef3:	18          	addsp 32
     ef4:	0c          	store
     ef5:	90          	im 16
     ef6:	17          	addsp 28
     ef7:	58          	storesp 32
     ef8:	9b          	im 27
     ef9:	76          	loadsp 24
     efa:	27          	ulessthanorequal
     efb:	ae          	im 46
     efc:	38          	neqbranch
     efd:	74          	loadsp 16
     efe:	70          	loadsp 0
     eff:	84          	im 4
     f00:	05          	add
     f01:	56          	storesp 24
     f02:	08          	load
     f03:	78          	loadsp 32
     f04:	0c          	store
     f05:	74          	loadsp 16
     f06:	70          	loadsp 0
     f07:	84          	im 4
     f08:	05          	add
     f09:	56          	storesp 24
     f0a:	08          	load
     f0b:	94          	im 20
     f0c:	18          	addsp 32
     f0d:	0c          	store
     f0e:	98          	im 24
     f0f:	17          	addsp 28
     f10:	58          	storesp 32
     f11:	a3          	im 35
     f12:	76          	loadsp 24
     f13:	27          	ulessthanorequal
     f14:	95          	im 21
     f15:	38          	neqbranch
     f16:	74          	loadsp 16
     f17:	70          	loadsp 0
     f18:	84          	im 4
     f19:	05          	add
     f1a:	56          	storesp 24
     f1b:	08          	load
     f1c:	78          	loadsp 32
     f1d:	0c          	store
     f1e:	74          	loadsp 16
     f1f:	70          	loadsp 0
     f20:	84          	im 4
     f21:	05          	add
     f22:	56          	storesp 24
     f23:	08          	load
     f24:	9c          	im 28
     f25:	18          	addsp 32
     f26:	0c          	store
     f27:	a0          	im 32
     f28:	17          	addsp 28
     f29:	58          	storesp 32

00000f2a <.L23>:
     f2a:	74          	loadsp 16
     f2b:	70          	loadsp 0
     f2c:	84          	im 4
     f2d:	05          	add
     f2e:	56          	storesp 24
     f2f:	08          	load
     f30:	75          	loadsp 20
     f31:	41          	storesp 68
     f32:	78          	loadsp 32
     f33:	70          	loadsp 0
     f34:	84          	im 4
     f35:	05          	add
     f36:	5a          	storesp 40
     f37:	0c          	store
     f38:	77          	loadsp 28
     f39:	60          	loadsp 64
     f3a:	70          	loadsp 0
     f3b:	84          	im 4
     f3c:	05          	add
     f3d:	42          	storesp 72
     f3e:	08          	load
     f3f:	71          	loadsp 4
     f40:	70          	loadsp 0
     f41:	84          	im 4
     f42:	05          	add
     f43:	53          	storesp 12
     f44:	0c          	store
     f45:	60          	loadsp 64
     f46:	08          	load
     f47:	71          	loadsp 4
     f48:	0c          	store
     f49:	5e          	storesp 56

00000f4a <.LBE8>:
     f4a:	7a          	loadsp 40
     f4b:	17          	addsp 28
     f4c:	70          	loadsp 0
     f4d:	80          	im 0
     f4e:	d7          	im -41
     f4f:	a0          	im 32
     f50:	0b          	nop
     f51:	88          	im 8
     f52:	05          	add
     f53:	0c          	store

00000f54 <.LM74>:
     f54:	7a          	loadsp 40
     f55:	7c          	loadsp 48
     f56:	31          	sub
     f57:	81          	im 1
     f58:	07          	or
     f59:	84          	im 4
     f5a:	12          	addsp 8
     f5b:	0c          	store
     f5c:	58          	storesp 32

00000f5d <.LM75>:
     f5d:	84          	im 4
     f5e:	17          	addsp 28
     f5f:	08          	load
     f60:	81          	im 1
     f61:	06          	and
     f62:	7b          	loadsp 44
     f63:	07          	or
     f64:	84          	im 4
     f65:	18          	addsp 32
     f66:	0c          	store

00000f67 <.LM76>:
     f67:	61          	loadsp 68
     f68:	51          	storesp 4
     f69:	a2          	im 34
     f6a:	b2          	im 50
     f6b:	3f          	callpcrel

00000f6c <.LM77>:
     f6c:	78          	loadsp 32
     f6d:	54          	storesp 16

00000f6e <.L68>:
     f6e:	73          	loadsp 12
     f6f:	80          	im 0
     f70:	0c          	store
     f71:	93          	im 19
     f72:	3d          	pushspadd
     f73:	0d          	popsp
     f74:	04          	poppc

00000f75 <.L37>:
     f75:	79          	loadsp 36
     f76:	53          	storesp 12
     f77:	7b          	loadsp 44
     f78:	52          	storesp 8
     f79:	75          	loadsp 20
     f7a:	51          	storesp 4
     f7b:	9f          	im 31
     f7c:	f9          	im -7
     f7d:	3f          	callpcrel
     f7e:	fa          	im -6
     f7f:	e9          	im -23
     f80:	39          	poppcrel

00000f81 <.L67>:
     f81:	84          	im 4
     f82:	15          	addsp 20
     f83:	08          	load
     f84:	fc          	im -4
     f85:	06          	and
     f86:	19          	addsp 36

00000f87 <.LM81>:
     f87:	60          	loadsp 64
     f88:	58          	storesp 32
     f89:	59          	storesp 36
     f8a:	fa          	im -6
     f8b:	dd          	im -35
     f8c:	39          	poppcrel

00000f8d <.L22>:
     f8d:	75          	loadsp 20
     f8e:	53          	storesp 12
     f8f:	7b          	loadsp 44
     f90:	52          	storesp 8
     f91:	78          	loadsp 32
     f92:	51          	storesp 4
     f93:	9f          	im 31
     f94:	e1          	im -31
     f95:	3f          	callpcrel

00000f96 <.LM83>:
     f96:	7a          	loadsp 40
     f97:	17          	addsp 28
     f98:	70          	loadsp 0
     f99:	80          	im 0
     f9a:	d7          	im -41
     f9b:	a0          	im 32
     f9c:	0b          	nop
     f9d:	88          	im 8
     f9e:	05          	add
     f9f:	0c          	store

00000fa0 <.LM84>:
     fa0:	7a          	loadsp 40
     fa1:	7c          	loadsp 48
     fa2:	31          	sub
     fa3:	81          	im 1
     fa4:	07          	or
     fa5:	84          	im 4
     fa6:	12          	addsp 8
     fa7:	0c          	store
     fa8:	58          	storesp 32

00000fa9 <.LM85>:
     fa9:	84          	im 4
     faa:	17          	addsp 28
     fab:	08          	load
     fac:	81          	im 1
     fad:	06          	and
     fae:	7b          	loadsp 44
     faf:	07          	or
     fb0:	84          	im 4
     fb1:	18          	addsp 32
     fb2:	0c          	store

00000fb3 <.LM86>:
     fb3:	61          	loadsp 68
     fb4:	51          	storesp 4
     fb5:	a1          	im 33
     fb6:	e6          	im -26
     fb7:	3f          	callpcrel

00000fb8 <.LM87>:
     fb8:	78          	loadsp 32
     fb9:	54          	storesp 16
     fba:	ff          	im -1
     fbb:	b2          	im 50
     fbc:	39          	poppcrel

00000fbd <__swsetup>:
     fbd:	fa          	im -6
     fbe:	3d          	pushspadd
     fbf:	0d          	popsp
     fc0:	78          	loadsp 32

00000fc1 <.LM2>:
     fc1:	80          	im 0
     fc2:	cf          	im -49
     fc3:	e4          	im -28
     fc4:	08          	load
     fc5:	54          	storesp 16
     fc6:	55          	storesp 20
     fc7:	b8          	im 56
     fc8:	13          	addsp 12
     fc9:	08          	load
     fca:	80          	im 0
     fcb:	2e          	eq
     fcc:	81          	im 1
     fcd:	af          	im 47
     fce:	38          	neqbranch

00000fcf <.L2>:
     fcf:	8c          	im 12
     fd0:	15          	addsp 20
     fd1:	22          	loadh
     fd2:	70          	loadsp 0
     fd3:	83          	im 3
     fd4:	ff          	im -1
     fd5:	ff          	im -1
     fd6:	06          	and
     fd7:	70          	loadsp 0
     fd8:	83          	im 3
     fd9:	2a          	lshiftright
     fda:	81          	im 1
     fdb:	32          	xor
     fdc:	81          	im 1
     fdd:	06          	and
     fde:	55          	storesp 20
     fdf:	55          	storesp 20
     fe0:	56          	storesp 24
     fe1:	72          	loadsp 8
     fe2:	80          	im 0
     fe3:	2e          	eq
     fe4:	80          	im 0
     fe5:	da          	im -38
     fe6:	38          	neqbranch

00000fe7 <.LM4>:
     fe7:	73          	loadsp 12
     fe8:	84          	im 4
     fe9:	2a          	lshiftright
     fea:	81          	im 1
     feb:	32          	xor
     fec:	81          	im 1
     fed:	06          	and
     fee:	57          	storesp 28

00000fef <.LM5>:
     fef:	ff          	im -1
     ff0:	53          	storesp 12

00000ff1 <.LM6>:
     ff1:	76          	loadsp 24
     ff2:	80          	im 0
     ff3:	f2          	im -14
     ff4:	38          	neqbranch

00000ff5 <.LM7>:
     ff5:	73          	loadsp 12
     ff6:	82          	im 2
     ff7:	2a          	lshiftright
     ff8:	81          	im 1
     ff9:	06          	and
     ffa:	54          	storesp 16
     ffb:	73          	loadsp 12
     ffc:	80          	im 0
     ffd:	2e          	eq
     ffe:	b9          	im 57
     fff:	38          	neqbranch

00001000 <.LM8>:
    1000:	b0          	im 48
    1001:	15          	addsp 20
    1002:	08          	load
    1003:	54          	storesp 16
    1004:	73          	loadsp 12
    1005:	80          	im 0
    1006:	2e          	eq
    1007:	9c          	im 28
    1008:	38          	neqbranch

00001009 <.LM9>:
    1009:	80          	im 0
    100a:	c0          	im -64
    100b:	15          	addsp 20
    100c:	53          	storesp 12
    100d:	73          	loadsp 12
    100e:	73          	loadsp 12
    100f:	2e          	eq
    1010:	8f          	im 15
    1011:	38          	neqbranch
    1012:	73          	loadsp 12
    1013:	52          	storesp 8
    1014:	80          	im 0
    1015:	cf          	im -49
    1016:	e4          	im -28
    1017:	08          	load
    1018:	51          	storesp 4
    1019:	8a          	im 10
    101a:	9e          	im 30
    101b:	3f          	callpcrel
    101c:	8c          	im 12
    101d:	15          	addsp 20
    101e:	22          	loadh
    101f:	56          	storesp 24

00001020 <.L8>:
    1020:	76          	loadsp 24
    1021:	b0          	im 48
    1022:	16          	addsp 24
    1023:	0c          	store

00001024 <.L7>:
    1024:	75          	loadsp 20
    1025:	db          	im -37
    1026:	06          	and
    1027:	57          	storesp 28
    1028:	76          	loadsp 24
    1029:	8c          	im 12
    102a:	16          	addsp 24
    102b:	23          	storeh

0000102c <.LM11>:
    102c:	80          	im 0
    102d:	0b          	nop
    102e:	84          	im 4
    102f:	16          	addsp 24
    1030:	0c          	store

00001031 <.LM12>:
    1031:	90          	im 16
    1032:	15          	addsp 20
    1033:	08          	load
    1034:	75          	loadsp 20
    1035:	0c          	store
    1036:	76          	loadsp 24
    1037:	56          	storesp 24

00001038 <.L6>:
    1038:	75          	loadsp 20
    1039:	88          	im 8
    103a:	07          	or
    103b:	54          	storesp 16
    103c:	73          	loadsp 12
    103d:	8c          	im 12
    103e:	16          	addsp 24
    103f:	23          	storeh

00001040 <.L4>:
    1040:	90          	im 16
    1041:	15          	addsp 20
    1042:	08          	load
    1043:	80          	im 0
    1044:	2e          	eq
    1045:	bf          	im 63
    1046:	38          	neqbranch

00001047 <.LM15>:
    1047:	8c          	im 12
    1048:	15          	addsp 20
    1049:	22          	loadh
    104a:	70          	loadsp 0
    104b:	81          	im 1
    104c:	06          	and
    104d:	55          	storesp 20
    104e:	53          	storesp 12
    104f:	73          	loadsp 12
    1050:	9c          	im 28
    1051:	38          	neqbranch

00001052 <.L10>:
    1052:	72          	loadsp 8
    1053:	0a          	flip
    1054:	10          	addsp 0
    1055:	0a          	flip
    1056:	81          	im 1
    1057:	06          	and
    1058:	56          	storesp 24
    1059:	75          	loadsp 20
    105a:	85          	im 5
    105b:	38          	neqbranch
    105c:	94          	im 20
    105d:	15          	addsp 20
    105e:	08          	load
    105f:	54          	storesp 16

00001060 <.L13>:
    1060:	73          	loadsp 12
    1061:	88          	im 8
    1062:	16          	addsp 24
    1063:	0c          	store

00001064 <.LM17>:
    1064:	80          	im 0
    1065:	53          	storesp 12

00001066 <.L1>:
    1066:	72          	loadsp 8
    1067:	80          	im 0
    1068:	0c          	store
    1069:	88          	im 8
    106a:	3d          	pushspadd
    106b:	0d          	popsp
    106c:	04          	poppc

0000106d <.L17>:
    106d:	80          	im 0
    106e:	0b          	nop
    106f:	88          	im 8
    1070:	16          	addsp 24
    1071:	0c          	store

00001072 <.LM20>:
    1072:	94          	im 20
    1073:	15          	addsp 20
    1074:	08          	load
    1075:	30          	neg
    1076:	98          	im 24
    1077:	16          	addsp 24
    1078:	0c          	store

00001079 <.LM21>:
    1079:	80          	im 0
    107a:	53          	storesp 12
    107b:	ea          	im -22
    107c:	39          	poppcrel

0000107d <.L15>:
    107d:	72          	loadsp 8
    107e:	51          	storesp 4
    107f:	82          	im 2
    1080:	a6          	im 38
    1081:	3f          	callpcrel
    1082:	fe          	im -2
    1083:	cb          	im -53
    1084:	39          	poppcrel

00001085 <.L16>:
    1085:	74          	loadsp 16
    1086:	51          	storesp 4
    1087:	8f          	im 15
    1088:	bc          	im 60
    1089:	3f          	callpcrel

0000108a <.LM24>:
    108a:	8c          	im 12
    108b:	15          	addsp 20
    108c:	22          	loadh
    108d:	70          	loadsp 0
    108e:	81          	im 1
    108f:	06          	and
    1090:	55          	storesp 20
    1091:	53          	storesp 12
    1092:	73          	loadsp 12
    1093:	80          	im 0
    1094:	2e          	eq
    1095:	ff          	im -1
    1096:	bb          	im 59
    1097:	38          	neqbranch
    1098:	d4          	im -44
    1099:	39          	poppcrel

0000109a <fflush>:
    109a:	f8          	im -8
    109b:	3d          	pushspadd
    109c:	0d          	popsp
    109d:	7a          	loadsp 40
    109e:	57          	storesp 28

0000109f <.LM2>:
    109f:	76          	loadsp 24
    10a0:	80          	im 0
    10a1:	2e          	eq
    10a2:	81          	im 1
    10a3:	97          	im 23
    10a4:	38          	neqbranch

000010a5 <.LM3>:
    10a5:	80          	im 0
    10a6:	cf          	im -49
    10a7:	e4          	im -28
    10a8:	08          	load
    10a9:	54          	storesp 16
    10aa:	b8          	im 56
    10ab:	14          	addsp 16
    10ac:	08          	load
    10ad:	80          	im 0
    10ae:	2e          	eq
    10af:	80          	im 0
    10b0:	eb          	im -21
    10b1:	38          	neqbranch

000010b2 <.LM4>:
    10b2:	8c          	im 12
    10b3:	17          	addsp 28
    10b4:	22          	loadh
    10b5:	70          	loadsp 0
    10b6:	90          	im 16
    10b7:	2b          	ashiftleft
    10b8:	70          	loadsp 0
    10b9:	90          	im 16
    10ba:	2c          	ashiftright

000010bb <.LM5>:
    10bb:	70          	loadsp 0
    10bc:	83          	im 3
    10bd:	2a          	lshiftright
    10be:	81          	im 1
    10bf:	32          	xor
    10c0:	81          	im 1
    10c1:	06          	and
    10c2:	5b          	storesp 44
    10c3:	5b          	storesp 44
    10c4:	57          	storesp 28
    10c5:	55          	storesp 20
    10c6:	77          	loadsp 28
    10c7:	80          	im 0
    10c8:	cb          	im -53
    10c9:	38          	neqbranch

000010ca <.L23>:
    10ca:	90          	im 16
    10cb:	17          	addsp 28
    10cc:	08          	load
    10cd:	56          	storesp 24
    10ce:	75          	loadsp 20
    10cf:	80          	im 0
    10d0:	2e          	eq
    10d1:	80          	im 0
    10d2:	c1          	im -63
    10d3:	38          	neqbranch

000010d4 <.LM6>:
    10d4:	76          	loadsp 24
    10d5:	08          	load
    10d6:	76          	loadsp 24
    10d7:	31          	sub

000010d8 <.LM7>:
    10d8:	76          	loadsp 24
    10d9:	78          	loadsp 32
    10da:	0c          	store

000010db <.LM8>:
    10db:	79          	loadsp 36
    10dc:	83          	im 3
    10dd:	06          	and
    10de:	55          	storesp 20
    10df:	55          	storesp 20
    10e0:	73          	loadsp 12
    10e1:	85          	im 5
    10e2:	38          	neqbranch
    10e3:	94          	im 20
    10e4:	17          	addsp 28
    10e5:	08          	load
    10e6:	58          	storesp 32

000010e7 <.L8>:
    10e7:	77          	loadsp 28
    10e8:	88          	im 8
    10e9:	18          	addsp 32
    10ea:	0c          	store

000010eb <.LM9>:
    10eb:	80          	im 0
    10ec:	75          	loadsp 20
    10ed:	25          	lessthanorequal
    10ee:	a5          	im 37
    10ef:	38          	neqbranch

000010f0 <.L22>:
    10f0:	74          	loadsp 16
    10f1:	53          	storesp 12
    10f2:	75          	loadsp 20
    10f3:	52          	storesp 8
    10f4:	9c          	im 28
    10f5:	17          	addsp 28
    10f6:	08          	load
    10f7:	51          	storesp 4
    10f8:	a4          	im 36
    10f9:	17          	addsp 28
    10fa:	08          	load
    10fb:	54          	storesp 16
    10fc:	73          	loadsp 12
    10fd:	2d          	call

000010fe <.LM11>:
    10fe:	80          	im 0
    10ff:	0b          	nop
    1100:	80          	im 0
    1101:	08          	load
    1102:	25          	lessthanorequal
    1103:	80          	im 0
    1104:	c9          	im -55
    1105:	38          	neqbranch

00001106 <.LM12>:
    1106:	80          	im 0
    1107:	08          	load
    1108:	16          	addsp 24

00001109 <.LM13>:
    1109:	75          	loadsp 20
    110a:	80          	im 0
    110b:	08          	load
    110c:	31          	sub
    110d:	56          	storesp 24
    110e:	56          	storesp 24
    110f:	74          	loadsp 16
    1110:	80          	im 0
    1111:	24          	lessthan
    1112:	dd          	im -35
    1113:	38          	neqbranch

00001114 <.L14>:
    1114:	80          	im 0

00001115 <.LM15>:
    1115:	0b          	nop
    1116:	80          	im 0
    1117:	0c          	store
    1118:	8a          	im 10
    1119:	3d          	pushspadd
    111a:	0d          	popsp
    111b:	04          	poppc

0000111c <.L21>:
    111c:	73          	loadsp 12
    111d:	51          	storesp 4
    111e:	81          	im 1
    111f:	87          	im 7
    1120:	3f          	callpcrel

00001121 <.LM17>:
    1121:	8c          	im 12
    1122:	17          	addsp 28
    1123:	22          	loadh
    1124:	70          	loadsp 0
    1125:	90          	im 16
    1126:	2b          	ashiftleft
    1127:	70          	loadsp 0
    1128:	90          	im 16
    1129:	2c          	ashiftright

0000112a <.LM18>:
    112a:	70          	loadsp 0
    112b:	83          	im 3
    112c:	2a          	lshiftright
    112d:	81          	im 1
    112e:	32          	xor
    112f:	81          	im 1
    1130:	06          	and
    1131:	5b          	storesp 44
    1132:	5b          	storesp 44
    1133:	57          	storesp 28
    1134:	55          	storesp 20
    1135:	77          	loadsp 28
    1136:	dd          	im -35
    1137:	38          	neqbranch
    1138:	ff          	im -1
    1139:	90          	im 16
    113a:	39          	poppcrel

0000113b <.L20>:
    113b:	a1          	im 33
    113c:	9a          	im 26
    113d:	52          	storesp 8
    113e:	80          	im 0
    113f:	cf          	im -49
    1140:	e4          	im -28
    1141:	08          	load
    1142:	51          	storesp 4
    1143:	8c          	im 12
    1144:	d0          	im -48
    1145:	3f          	callpcrel
    1146:	80          	im 0
    1147:	08          	load

00001148 <.LM20>:
    1148:	80          	im 0
    1149:	0c          	store
    114a:	8a          	im 10
    114b:	3d          	pushspadd
    114c:	0d          	popsp
    114d:	04          	poppc

0000114e <.L15>:
    114e:	8c          	im 12
    114f:	17          	addsp 28
    1150:	22          	loadh
    1151:	80          	im 0
    1152:	c0          	im -64
    1153:	07          	or
    1154:	58          	storesp 32
    1155:	77          	loadsp 28
    1156:	8c          	im 12
    1157:	18          	addsp 32
    1158:	23          	storeh

00001159 <.LM22>:
    1159:	ff          	im -1

0000115a <.LM23>:
    115a:	0b          	nop
    115b:	80          	im 0
    115c:	0c          	store
    115d:	8a          	im 10
    115e:	3d          	pushspadd
    115f:	0d          	popsp
    1160:	04          	poppc

00001161 <__sfmoreglue>:
    1161:	fa          	im -6
    1162:	3d          	pushspadd
    1163:	0d          	popsp
    1164:	79          	loadsp 36

00001165 <.LM2>:
    1165:	70          	loadsp 0
    1166:	80          	im 0
    1167:	dc          	im -36
    1168:	29          	mult
    1169:	8c          	im 12
    116a:	11          	addsp 4
    116b:	54          	storesp 16
    116c:	7a          	loadsp 40
    116d:	53          	storesp 12
    116e:	56          	storesp 24
    116f:	57          	storesp 28
    1170:	8f          	im 15
    1171:	d6          	im -42
    1172:	3f          	callpcrel
    1173:	80          	im 0
    1174:	08          	load

00001175 <.LM3>:
    1175:	80          	im 0
    1176:	08          	load
    1177:	55          	storesp 20
    1178:	56          	storesp 24

00001179 <.LM4>:
    1179:	80          	im 0
    117a:	08          	load
    117b:	80          	im 0
    117c:	2e          	eq
    117d:	a2          	im 34
    117e:	38          	neqbranch

0000117f <.LM5>:
    117f:	80          	im 0
    1180:	08          	load
    1181:	8c          	im 12
    1182:	05          	add
    1183:	54          	storesp 16

00001184 <.LM6>:
    1184:	80          	im 0
    1185:	0b          	nop
    1186:	80          	im 0
    1187:	08          	load
    1188:	0c          	store

00001189 <.LM7>:
    1189:	76          	loadsp 24
    118a:	80          	im 0
    118b:	08          	load
    118c:	84          	im 4
    118d:	05          	add
    118e:	0c          	store

0000118f <.LM8>:
    118f:	73          	loadsp 12
    1190:	80          	im 0
    1191:	08          	load
    1192:	88          	im 8
    1193:	05          	add
    1194:	0c          	store

00001195 <.LM9>:
    1195:	74          	loadsp 16
    1196:	53          	storesp 12
    1197:	80          	im 0
    1198:	52          	storesp 8
    1199:	73          	loadsp 12
    119a:	51          	storesp 4
    119b:	9c          	im 28
    119c:	f5          	im -11
    119d:	3f          	callpcrel

0000119e <.LM10>:
    119e:	75          	loadsp 20
    119f:	54          	storesp 16

000011a0 <.L1>:
    11a0:	73          	loadsp 12
    11a1:	80          	im 0
    11a2:	0c          	store
    11a3:	88          	im 8
    11a4:	3d          	pushspadd
    11a5:	0d          	popsp
    11a6:	04          	poppc

000011a7 <__sinit>:
    11a7:	70          	loadsp 0
    11a8:	70          	loadsp 0
    11a9:	70          	loadsp 0
    11aa:	74          	loadsp 16

000011ab <.LM13>:
    11ab:	a8          	im 40
    11ac:	e6          	im -26
    11ad:	0b          	nop
    11ae:	bc          	im 60
    11af:	12          	addsp 8
    11b0:	0c          	store
    11b1:	53          	storesp 12

000011b2 <.LM14>:
    11b2:	81          	im 1
    11b3:	0b          	nop
    11b4:	b8          	im 56
    11b5:	14          	addsp 16
    11b6:	0c          	store

000011b7 <.LM15>:
    11b7:	80          	im 0
    11b8:	0b          	nop
    11b9:	84          	im 4
    11ba:	dc          	im -36
    11bb:	14          	addsp 16
    11bc:	0c          	store

000011bd <.LM16>:
    11bd:	83          	im 3
    11be:	0b          	nop
    11bf:	84          	im 4
    11c0:	e0          	im -32
    11c1:	14          	addsp 16
    11c2:	0c          	store

000011c3 <.LM17>:
    11c3:	84          	im 4
    11c4:	e8          	im -24
    11c5:	13          	addsp 12
    11c6:	84          	im 4
    11c7:	e4          	im -28
    11c8:	14          	addsp 16
    11c9:	0c          	store

000011ca <.LBB2>:
    11ca:	84          	im 4
    11cb:	13          	addsp 12
    11cc:	08          	load
    11cd:	51          	storesp 4
    11ce:	80          	im 0

000011cf <.LM19>:
    11cf:	70          	loadsp 0
    11d0:	72          	loadsp 8
    11d1:	0c          	store

000011d2 <.LM20>:
    11d2:	70          	loadsp 0
    11d3:	84          	im 4
    11d4:	13          	addsp 12
    11d5:	0c          	store

000011d6 <.LM21>:
    11d6:	70          	loadsp 0
    11d7:	88          	im 8
    11d8:	13          	addsp 12
    11d9:	0c          	store
    11da:	52          	storesp 8

000011db <.LM22>:
    11db:	84          	im 4
    11dc:	0b          	nop
    11dd:	8c          	im 12
    11de:	12          	addsp 8
    11df:	23          	storeh

000011e0 <.LM23>:
    11e0:	71          	loadsp 4
    11e1:	8e          	im 14
    11e2:	12          	addsp 8
    11e3:	23          	storeh

000011e4 <.LM24>:
    11e4:	71          	loadsp 4
    11e5:	90          	im 16
    11e6:	12          	addsp 8
    11e7:	0c          	store

000011e8 <.LM25>:
    11e8:	71          	loadsp 4
    11e9:	94          	im 20
    11ea:	12          	addsp 8
    11eb:	0c          	store

000011ec <.LM26>:
    11ec:	71          	loadsp 4
    11ed:	98          	im 24
    11ee:	12          	addsp 8
    11ef:	0c          	store

000011f0 <.LM27>:
    11f0:	70          	loadsp 0
    11f1:	9c          	im 28
    11f2:	12          	addsp 8
    11f3:	0c          	store

000011f4 <.LM28>:
    11f4:	80          	im 0
    11f5:	c1          	im -63
    11f6:	d5          	im -43
    11f7:	0b          	nop
    11f8:	a0          	im 32
    11f9:	12          	addsp 8
    11fa:	0c          	store

000011fb <.LM29>:
    11fb:	80          	im 0
    11fc:	c2          	im -62
    11fd:	a1          	im 33
    11fe:	0b          	nop
    11ff:	a4          	im 36
    1200:	12          	addsp 8
    1201:	0c          	store

00001202 <.LM30>:
    1202:	80          	im 0
    1203:	c3          	im -61
    1204:	9d          	im 29
    1205:	0b          	nop
    1206:	a8          	im 40
    1207:	12          	addsp 8
    1208:	0c          	store

00001209 <.LM31>:
    1209:	80          	im 0
    120a:	c3          	im -61
    120b:	ee          	im -18
    120c:	0b          	nop
    120d:	ac          	im 44
    120e:	12          	addsp 8
    120f:	0c          	store

00001210 <.LBB4>:
    1210:	88          	im 8
    1211:	13          	addsp 12
    1212:	08          	load

00001213 <.LM33>:
    1213:	72          	loadsp 8
    1214:	71          	loadsp 4
    1215:	0c          	store

00001216 <.LM34>:
    1216:	72          	loadsp 8
    1217:	84          	im 4
    1218:	12          	addsp 8
    1219:	0c          	store

0000121a <.LM35>:
    121a:	72          	loadsp 8
    121b:	88          	im 8
    121c:	12          	addsp 8
    121d:	0c          	store
    121e:	51          	storesp 4

0000121f <.LM36>:
    121f:	89          	im 9
    1220:	0b          	nop
    1221:	8c          	im 12
    1222:	12          	addsp 8
    1223:	23          	storeh

00001224 <.LM37>:
    1224:	81          	im 1
    1225:	0b          	nop
    1226:	8e          	im 14
    1227:	12          	addsp 8
    1228:	23          	storeh

00001229 <.LM38>:
    1229:	71          	loadsp 4
    122a:	90          	im 16
    122b:	12          	addsp 8
    122c:	0c          	store

0000122d <.LM39>:
    122d:	71          	loadsp 4
    122e:	94          	im 20
    122f:	12          	addsp 8
    1230:	0c          	store

00001231 <.LM40>:
    1231:	71          	loadsp 4
    1232:	98          	im 24
    1233:	12          	addsp 8
    1234:	0c          	store

00001235 <.LM41>:
    1235:	70          	loadsp 0
    1236:	9c          	im 28
    1237:	12          	addsp 8
    1238:	0c          	store

00001239 <.LM42>:
    1239:	80          	im 0
    123a:	c1          	im -63
    123b:	d5          	im -43
    123c:	0b          	nop
    123d:	a0          	im 32
    123e:	12          	addsp 8
    123f:	0c          	store

00001240 <.LM43>:
    1240:	80          	im 0
    1241:	c2          	im -62
    1242:	a1          	im 33
    1243:	0b          	nop
    1244:	a4          	im 36
    1245:	12          	addsp 8
    1246:	0c          	store

00001247 <.LM44>:
    1247:	80          	im 0
    1248:	c3          	im -61
    1249:	9d          	im 29
    124a:	0b          	nop
    124b:	a8          	im 40
    124c:	12          	addsp 8
    124d:	0c          	store

0000124e <.LM45>:
    124e:	80          	im 0
    124f:	c3          	im -61
    1250:	ee          	im -18
    1251:	0b          	nop
    1252:	ac          	im 44
    1253:	12          	addsp 8
    1254:	0c          	store

00001255 <.LBB6>:
    1255:	8c          	im 12
    1256:	13          	addsp 12
    1257:	08          	load

00001258 <.LM47>:
    1258:	72          	loadsp 8
    1259:	71          	loadsp 4
    125a:	0c          	store

0000125b <.LM48>:
    125b:	72          	loadsp 8
    125c:	84          	im 4
    125d:	12          	addsp 8
    125e:	0c          	store

0000125f <.LM49>:
    125f:	72          	loadsp 8
    1260:	88          	im 8
    1261:	12          	addsp 8
    1262:	0c          	store
    1263:	51          	storesp 4

00001264 <.LM50>:
    1264:	8a          	im 10
    1265:	0b          	nop
    1266:	8c          	im 12
    1267:	12          	addsp 8
    1268:	23          	storeh

00001269 <.LM51>:
    1269:	82          	im 2
    126a:	0b          	nop
    126b:	8e          	im 14
    126c:	12          	addsp 8
    126d:	23          	storeh

0000126e <.LM52>:
    126e:	71          	loadsp 4
    126f:	90          	im 16
    1270:	12          	addsp 8
    1271:	0c          	store

00001272 <.LM53>:
    1272:	71          	loadsp 4
    1273:	94          	im 20
    1274:	12          	addsp 8
    1275:	0c          	store

00001276 <.LM54>:
    1276:	71          	loadsp 4
    1277:	98          	im 24
    1278:	12          	addsp 8
    1279:	0c          	store

0000127a <.LM55>:
    127a:	70          	loadsp 0
    127b:	9c          	im 28
    127c:	12          	addsp 8
    127d:	0c          	store

0000127e <.LM56>:
    127e:	80          	im 0
    127f:	c1          	im -63
    1280:	d5          	im -43
    1281:	0b          	nop
    1282:	a0          	im 32
    1283:	12          	addsp 8
    1284:	0c          	store

00001285 <.LM57>:
    1285:	80          	im 0
    1286:	c2          	im -62
    1287:	a1          	im 33
    1288:	0b          	nop
    1289:	a4          	im 36
    128a:	12          	addsp 8
    128b:	0c          	store

0000128c <.LM58>:
    128c:	80          	im 0
    128d:	c3          	im -61
    128e:	9d          	im 29
    128f:	0b          	nop
    1290:	a8          	im 40
    1291:	12          	addsp 8
    1292:	0c          	store

00001293 <.LM59>:
    1293:	80          	im 0
    1294:	c3          	im -61
    1295:	ee          	im -18
    1296:	0b          	nop
    1297:	ac          	im 44
    1298:	12          	addsp 8
    1299:	0c          	store

0000129a <.LBE6>:
    129a:	50          	storesp 0
    129b:	50          	storesp 0
    129c:	50          	storesp 0
    129d:	04          	poppc

0000129e <__sfp>:
    129e:	f8          	im -8
    129f:	3d          	pushspadd
    12a0:	0d          	popsp
    12a1:	7a          	loadsp 40

000012a2 <.LM61>:
    12a2:	80          	im 0
    12a3:	cf          	im -49
    12a4:	e4          	im -28
    12a5:	08          	load
    12a6:	b8          	im 56
    12a7:	11          	addsp 4
    12a8:	08          	load
    12a9:	57          	storesp 28
    12aa:	57          	storesp 28
    12ab:	58          	storesp 32
    12ac:	74          	loadsp 16
    12ad:	81          	im 1
    12ae:	ec          	im -20
    12af:	38          	neqbranch

000012b0 <.LBB8>:
    12b0:	a8          	im 40
    12b1:	e6          	im -26
    12b2:	0b          	nop
    12b3:	bc          	im 60
    12b4:	17          	addsp 28
    12b5:	0c          	store

000012b6 <.LM63>:
    12b6:	81          	im 1
    12b7:	0b          	nop
    12b8:	b8          	im 56
    12b9:	17          	addsp 28
    12ba:	0c          	store

000012bb <.LM64>:
    12bb:	74          	loadsp 16
    12bc:	84          	im 4
    12bd:	dc          	im -36
    12be:	17          	addsp 28
    12bf:	0c          	store

000012c0 <.LM65>:
    12c0:	83          	im 3
    12c1:	0b          	nop
    12c2:	84          	im 4
    12c3:	e0          	im -32
    12c4:	17          	addsp 28
    12c5:	0c          	store

000012c6 <.LM66>:
    12c6:	84          	im 4
    12c7:	e8          	im -24
    12c8:	16          	addsp 24
    12c9:	84          	im 4
    12ca:	e4          	im -28
    12cb:	17          	addsp 28
    12cc:	0c          	store

000012cd <.LBB10>:
    12cd:	84          	im 4
    12ce:	16          	addsp 24
    12cf:	08          	load

000012d0 <.LM68>:
    12d0:	75          	loadsp 20
    12d1:	71          	loadsp 4
    12d2:	0c          	store

000012d3 <.LM69>:
    12d3:	75          	loadsp 20
    12d4:	84          	im 4
    12d5:	12          	addsp 8
    12d6:	0c          	store

000012d7 <.LM70>:
    12d7:	75          	loadsp 20
    12d8:	88          	im 8
    12d9:	12          	addsp 8
    12da:	0c          	store
    12db:	59          	storesp 36

000012dc <.LM71>:
    12dc:	84          	im 4
    12dd:	0b          	nop
    12de:	8c          	im 12
    12df:	1a          	addsp 40
    12e0:	23          	storeh

000012e1 <.LM72>:
    12e1:	74          	loadsp 16
    12e2:	8e          	im 14
    12e3:	1a          	addsp 40
    12e4:	23          	storeh

000012e5 <.LM73>:
    12e5:	74          	loadsp 16
    12e6:	90          	im 16
    12e7:	1a          	addsp 40
    12e8:	0c          	store

000012e9 <.LM74>:
    12e9:	74          	loadsp 16
    12ea:	94          	im 20
    12eb:	1a          	addsp 40
    12ec:	0c          	store

000012ed <.LM75>:
    12ed:	74          	loadsp 16
    12ee:	98          	im 24
    12ef:	1a          	addsp 40
    12f0:	0c          	store

000012f1 <.LM76>:
    12f1:	78          	loadsp 32
    12f2:	9c          	im 28
    12f3:	1a          	addsp 40
    12f4:	0c          	store

000012f5 <.LM77>:
    12f5:	80          	im 0
    12f6:	c1          	im -63
    12f7:	d5          	im -43
    12f8:	0b          	nop
    12f9:	a0          	im 32
    12fa:	1a          	addsp 40
    12fb:	0c          	store

000012fc <.LM78>:
    12fc:	80          	im 0
    12fd:	c2          	im -62
    12fe:	a1          	im 33
    12ff:	0b          	nop
    1300:	a4          	im 36
    1301:	1a          	addsp 40
    1302:	0c          	store

00001303 <.LM79>:
    1303:	80          	im 0
    1304:	c3          	im -61
    1305:	9d          	im 29
    1306:	0b          	nop
    1307:	a8          	im 40
    1308:	1a          	addsp 40
    1309:	0c          	store

0000130a <.LM80>:
    130a:	80          	im 0
    130b:	c3          	im -61
    130c:	ee          	im -18
    130d:	0b          	nop
    130e:	ac          	im 44
    130f:	1a          	addsp 40
    1310:	0c          	store

00001311 <.LBB12>:
    1311:	88          	im 8
    1312:	16          	addsp 24
    1313:	08          	load

00001314 <.LM82>:
    1314:	75          	loadsp 20
    1315:	71          	loadsp 4
    1316:	0c          	store

00001317 <.LM83>:
    1317:	75          	loadsp 20
    1318:	84          	im 4
    1319:	12          	addsp 8
    131a:	0c          	store

0000131b <.LM84>:
    131b:	75          	loadsp 20
    131c:	88          	im 8
    131d:	12          	addsp 8
    131e:	0c          	store
    131f:	57          	storesp 28

00001320 <.LM85>:
    1320:	89          	im 9
    1321:	0b          	nop
    1322:	8c          	im 12
    1323:	18          	addsp 32
    1324:	23          	storeh

00001325 <.LM86>:
    1325:	81          	im 1
    1326:	0b          	nop
    1327:	8e          	im 14
    1328:	18          	addsp 32
    1329:	23          	storeh

0000132a <.LM87>:
    132a:	74          	loadsp 16
    132b:	90          	im 16
    132c:	18          	addsp 32
    132d:	0c          	store

0000132e <.LM88>:
    132e:	74          	loadsp 16
    132f:	94          	im 20
    1330:	18          	addsp 32
    1331:	0c          	store

00001332 <.LM89>:
    1332:	74          	loadsp 16
    1333:	98          	im 24
    1334:	18          	addsp 32
    1335:	0c          	store

00001336 <.LM90>:
    1336:	76          	loadsp 24
    1337:	9c          	im 28
    1338:	18          	addsp 32
    1339:	0c          	store

0000133a <.LM91>:
    133a:	80          	im 0
    133b:	c1          	im -63
    133c:	d5          	im -43
    133d:	0b          	nop
    133e:	a0          	im 32
    133f:	18          	addsp 32
    1340:	0c          	store

00001341 <.LM92>:
    1341:	80          	im 0
    1342:	c2          	im -62
    1343:	a1          	im 33
    1344:	0b          	nop
    1345:	a4          	im 36
    1346:	18          	addsp 32
    1347:	0c          	store

00001348 <.LM93>:
    1348:	80          	im 0
    1349:	c3          	im -61
    134a:	9d          	im 29
    134b:	0b          	nop
    134c:	a8          	im 40
    134d:	18          	addsp 32
    134e:	0c          	store

0000134f <.LM94>:
    134f:	80          	im 0
    1350:	c3          	im -61
    1351:	ee          	im -18
    1352:	0b          	nop
    1353:	ac          	im 44
    1354:	18          	addsp 32
    1355:	0c          	store

00001356 <.LBB14>:
    1356:	8c          	im 12
    1357:	16          	addsp 24
    1358:	08          	load

00001359 <.LM96>:
    1359:	75          	loadsp 20
    135a:	71          	loadsp 4
    135b:	0c          	store

0000135c <.LM97>:
    135c:	75          	loadsp 20
    135d:	84          	im 4
    135e:	12          	addsp 8
    135f:	0c          	store

00001360 <.LM98>:
    1360:	75          	loadsp 20
    1361:	88          	im 8
    1362:	12          	addsp 8
    1363:	0c          	store
    1364:	54          	storesp 16

00001365 <.LM99>:
    1365:	8a          	im 10
    1366:	0b          	nop
    1367:	8c          	im 12
    1368:	15          	addsp 20
    1369:	23          	storeh

0000136a <.LM100>:
    136a:	82          	im 2
    136b:	0b          	nop
    136c:	8e          	im 14
    136d:	15          	addsp 20
    136e:	23          	storeh

0000136f <.LM101>:
    136f:	74          	loadsp 16
    1370:	90          	im 16
    1371:	15          	addsp 20
    1372:	0c          	store

00001373 <.LM102>:
    1373:	74          	loadsp 16
    1374:	94          	im 20
    1375:	15          	addsp 20
    1376:	0c          	store

00001377 <.LM103>:
    1377:	74          	loadsp 16
    1378:	98          	im 24
    1379:	15          	addsp 20
    137a:	0c          	store

0000137b <.LM104>:
    137b:	73          	loadsp 12
    137c:	9c          	im 28
    137d:	15          	addsp 20
    137e:	0c          	store

0000137f <.LM105>:
    137f:	80          	im 0
    1380:	c1          	im -63
    1381:	d5          	im -43
    1382:	0b          	nop
    1383:	a0          	im 32
    1384:	15          	addsp 20
    1385:	0c          	store

00001386 <.LM106>:
    1386:	80          	im 0
    1387:	c2          	im -62
    1388:	a1          	im 33
    1389:	0b          	nop
    138a:	a4          	im 36
    138b:	15          	addsp 20
    138c:	0c          	store

0000138d <.LM107>:
    138d:	80          	im 0
    138e:	c3          	im -61
    138f:	9d          	im 29
    1390:	0b          	nop
    1391:	a8          	im 40
    1392:	15          	addsp 20
    1393:	0c          	store

00001394 <.LM108>:
    1394:	80          	im 0
    1395:	c3          	im -61
    1396:	ee          	im -18
    1397:	0b          	nop
    1398:	ac          	im 44
    1399:	15          	addsp 20
    139a:	0c          	store

0000139b <.L9>:
    139b:	84          	im 4
    139c:	dc          	im -36
    139d:	16          	addsp 24

0000139e <.LM110>:
    139e:	88          	im 8
    139f:	11          	addsp 4
    13a0:	08          	load
    13a1:	84          	im 4
    13a2:	12          	addsp 8
    13a3:	08          	load
    13a4:	ff          	im -1
    13a5:	05          	add
    13a6:	57          	storesp 28
    13a7:	57          	storesp 28
    13a8:	57          	storesp 28

000013a9 <.L30>:
    13a9:	80          	im 0
    13aa:	75          	loadsp 20
    13ab:	24          	lessthan
    13ac:	9f          	im 31
    13ad:	38          	neqbranch

000013ae <.L32>:
    13ae:	8c          	im 12
    13af:	16          	addsp 24
    13b0:	22          	loadh
    13b1:	70          	loadsp 0
    13b2:	90          	im 16
    13b3:	2b          	ashiftleft
    13b4:	70          	loadsp 0
    13b5:	90          	im 16
    13b6:	2c          	ashiftright
    13b7:	51          	storesp 4
    13b8:	55          	storesp 20
    13b9:	59          	storesp 36
    13ba:	73          	loadsp 12
    13bb:	80          	im 0
    13bc:	2e          	eq
    13bd:	80          	im 0
    13be:	ed          	im -19
    13bf:	38          	neqbranch

000013c0 <.LM112>:
    13c0:	80          	im 0
    13c1:	dc          	im -36
    13c2:	16          	addsp 24
    13c3:	ff          	im -1
    13c4:	16          	addsp 24
    13c5:	56          	storesp 24
    13c6:	56          	storesp 24
    13c7:	74          	loadsp 16
    13c8:	80          	im 0
    13c9:	25          	lessthanorequal
    13ca:	e3          	im -29
    13cb:	38          	neqbranch

000013cc <.L27>:
    13cc:	76          	loadsp 24
    13cd:	08          	load
    13ce:	55          	storesp 20
    13cf:	74          	loadsp 16
    13d0:	80          	im 0
    13d1:	2e          	eq
    13d2:	8f          	im 15
    13d3:	38          	neqbranch

000013d4 <.L16>:
    13d4:	74          	loadsp 16

000013d5 <.LM115>:
    13d5:	88          	im 8
    13d6:	11          	addsp 4
    13d7:	08          	load
    13d8:	84          	im 4
    13d9:	12          	addsp 8
    13da:	08          	load
    13db:	ff          	im -1
    13dc:	05          	add
    13dd:	57          	storesp 28
    13de:	57          	storesp 28
    13df:	57          	storesp 28
    13e0:	c8          	im -56
    13e1:	39          	poppcrel

000013e2 <.L33>:
    13e2:	82          	im 2
    13e3:	fc          	im -4
    13e4:	52          	storesp 8
    13e5:	77          	loadsp 28
    13e6:	51          	storesp 4
    13e7:	8a          	im 10
    13e8:	df          	im -33
    13e9:	3f          	callpcrel
    13ea:	80          	im 0
    13eb:	08          	load

000013ec <.LM117>:
    13ec:	80          	im 0
    13ed:	08          	load
    13ee:	55          	storesp 20
    13ef:	56          	storesp 24
    13f0:	80          	im 0
    13f1:	08          	load
    13f2:	80          	im 0
    13f3:	2e          	eq
    13f4:	a3          	im 35
    13f5:	38          	neqbranch

000013f6 <.LM118>:
    13f6:	80          	im 0
    13f7:	08          	load
    13f8:	8c          	im 12
    13f9:	05          	add

000013fa <.LM119>:
    13fa:	75          	loadsp 20
    13fb:	80          	im 0
    13fc:	08          	load
    13fd:	0c          	store
    13fe:	54          	storesp 16

000013ff <.LM120>:
    13ff:	84          	im 4
    1400:	0b          	nop
    1401:	80          	im 0
    1402:	08          	load
    1403:	84          	im 4
    1404:	05          	add
    1405:	0c          	store

00001406 <.LM121>:
    1406:	73          	loadsp 12
    1407:	80          	im 0
    1408:	08          	load
    1409:	88          	im 8
    140a:	05          	add
    140b:	0c          	store

0000140c <.LM122>:
    140c:	82          	im 2
    140d:	f0          	im -16
    140e:	53          	storesp 12
    140f:	74          	loadsp 16
    1410:	52          	storesp 8
    1411:	73          	loadsp 12
    1412:	51          	storesp 4
    1413:	97          	im 23
    1414:	fd          	im -3
    1415:	3f          	callpcrel
    1416:	75          	loadsp 20
    1417:	54          	storesp 16

00001418 <.L25>:
    1418:	73          	loadsp 12
    1419:	74          	loadsp 16
    141a:	78          	loadsp 32
    141b:	0c          	store
    141c:	55          	storesp 20
    141d:	73          	loadsp 12
    141e:	ff          	im -1
    141f:	b4          	im 52
    1420:	38          	neqbranch

00001421 <.LM124>:
    1421:	8c          	im 12
    1422:	78          	loadsp 32
    1423:	0c          	store

00001424 <.LM125>:
    1424:	80          	im 0

00001425 <.LM126>:
    1425:	0b          	nop
    1426:	80          	im 0
    1427:	0c          	store
    1428:	8a          	im 10
    1429:	3d          	pushspadd
    142a:	0d          	popsp
    142b:	04          	poppc

0000142c <.L21>:
    142c:	81          	im 1
    142d:	0b          	nop
    142e:	8c          	im 12
    142f:	17          	addsp 28
    1430:	23          	storeh

00001431 <.LM128>:
    1431:	73          	loadsp 12
    1432:	76          	loadsp 24
    1433:	0c          	store

00001434 <.LM129>:
    1434:	73          	loadsp 12
    1435:	88          	im 8
    1436:	17          	addsp 28
    1437:	0c          	store

00001438 <.LM130>:
    1438:	73          	loadsp 12
    1439:	84          	im 4
    143a:	17          	addsp 28
    143b:	0c          	store

0000143c <.LM131>:
    143c:	73          	loadsp 12
    143d:	90          	im 16
    143e:	17          	addsp 28
    143f:	0c          	store

00001440 <.LM132>:
    1440:	73          	loadsp 12
    1441:	94          	im 20
    1442:	17          	addsp 28
    1443:	0c          	store

00001444 <.LM133>:
    1444:	73          	loadsp 12
    1445:	98          	im 24
    1446:	17          	addsp 28
    1447:	0c          	store

00001448 <.LM134>:
    1448:	ff          	im -1
    1449:	0b          	nop
    144a:	8e          	im 14
    144b:	17          	addsp 28
    144c:	23          	storeh

0000144d <.LM135>:
    144d:	73          	loadsp 12
    144e:	b0          	im 48
    144f:	17          	addsp 28
    1450:	0c          	store

00001451 <.LM136>:
    1451:	73          	loadsp 12
    1452:	b4          	im 52
    1453:	17          	addsp 28
    1454:	0c          	store

00001455 <.LM137>:
    1455:	73          	loadsp 12
    1456:	80          	im 0
    1457:	c4          	im -60
    1458:	17          	addsp 28
    1459:	0c          	store

0000145a <.LM138>:
    145a:	73          	loadsp 12
    145b:	80          	im 0
    145c:	c8          	im -56
    145d:	17          	addsp 28
    145e:	0c          	store

0000145f <.LM139>:
    145f:	75          	loadsp 20

00001460 <.LM140>:
    1460:	80          	im 0
    1461:	0c          	store
    1462:	8a          	im 10
    1463:	3d          	pushspadd
    1464:	0d          	popsp
    1465:	04          	poppc

00001466 <_cleanup_r>:
    1466:	70          	loadsp 0
    1467:	70          	loadsp 0

00001468 <.LM142>:
    1468:	a1          	im 33
    1469:	9a          	im 26
    146a:	52          	storesp 8
    146b:	73          	loadsp 12
    146c:	51          	storesp 4
    146d:	86          	im 6
    146e:	a6          	im 38
    146f:	3f          	callpcrel
    1470:	50          	storesp 0
    1471:	50          	storesp 0
    1472:	04          	poppc

00001473 <_cleanup>:
    1473:	70          	loadsp 0
    1474:	70          	loadsp 0

00001475 <.LBB18>:
    1475:	a1          	im 33
    1476:	9a          	im 26
    1477:	52          	storesp 8
    1478:	80          	im 0
    1479:	cf          	im -49
    147a:	e4          	im -28
    147b:	08          	load
    147c:	51          	storesp 4
    147d:	86          	im 6
    147e:	96          	im 22
    147f:	3f          	callpcrel

00001480 <.LBE18>:
    1480:	50          	storesp 0
    1481:	50          	storesp 0
    1482:	04          	poppc

00001483 <_malloc_trim_r>:
    1483:	fb          	im -5
    1484:	3d          	pushspadd
    1485:	0d          	popsp
    1486:	77          	loadsp 28

00001487 <.LM2>:
    1487:	70          	loadsp 0
    1488:	52          	storesp 8
    1489:	56          	storesp 24
    148a:	98          	im 24
    148b:	90          	im 16
    148c:	3f          	callpcrel

0000148d <.LM3>:
    148d:	80          	im 0
    148e:	d7          	im -41
    148f:	a0          	im 32
    1490:	0b          	nop
    1491:	88          	im 8
    1492:	05          	add
    1493:	08          	load
    1494:	84          	im 4
    1495:	11          	addsp 4
    1496:	08          	load
    1497:	fc          	im -4
    1498:	06          	and

00001499 <.LM4>:
    1499:	70          	loadsp 0
    149a:	7b          	loadsp 44
    149b:	31          	sub
    149c:	9f          	im 31
    149d:	ef          	im -17
    149e:	05          	add
    149f:	e0          	im -32
    14a0:	80          	im 0
    14a1:	06          	and
    14a2:	e0          	im -32
    14a3:	80          	im 0
    14a4:	05          	add
    14a5:	52          	storesp 8
    14a6:	55          	storesp 20
    14a7:	55          	storesp 20

000014a8 <.LM5>:
    14a8:	a0          	im 32
    14a9:	80          	im 0
    14aa:	75          	loadsp 20
    14ab:	24          	lessthan
    14ac:	94          	im 20
    14ad:	38          	neqbranch

000014ae <.LM6>:
    14ae:	80          	im 0
    14af:	52          	storesp 8
    14b0:	75          	loadsp 20
    14b1:	51          	storesp 4
    14b2:	97          	im 23
    14b3:	ea          	im -22
    14b4:	3f          	callpcrel

000014b5 <.LM7>:
    14b5:	80          	im 0
    14b6:	d7          	im -41
    14b7:	a8          	im 40
    14b8:	08          	load
    14b9:	14          	addsp 16
    14ba:	53          	storesp 12
    14bb:	72          	loadsp 8
    14bc:	80          	im 0
    14bd:	08          	load
    14be:	2e          	eq
    14bf:	8f          	im 15
    14c0:	38          	neqbranch

000014c1 <.L7>:
    14c1:	75          	loadsp 20
    14c2:	51          	storesp 4
    14c3:	97          	im 23
    14c4:	d8          	im -40
    14c5:	3f          	callpcrel

000014c6 <.LM9>:
    14c6:	80          	im 0
    14c7:	53          	storesp 12

000014c8 <.L1>:
    14c8:	72          	loadsp 8
    14c9:	80          	im 0
    14ca:	0c          	store
    14cb:	87          	im 7
    14cc:	3d          	pushspadd
    14cd:	0d          	popsp
    14ce:	04          	poppc

000014cf <.L10>:
    14cf:	74          	loadsp 16
    14d0:	30          	neg
    14d1:	52          	storesp 8
    14d2:	75          	loadsp 20
    14d3:	51          	storesp 4
    14d4:	97          	im 23
    14d5:	c8          	im -56
    14d6:	3f          	callpcrel

000014d7 <.LM12>:
    14d7:	80          	im 0
    14d8:	08          	load
    14d9:	ff          	im -1
    14da:	2e          	eq
    14db:	a8          	im 40
    14dc:	38          	neqbranch

000014dd <.LM13>:
    14dd:	80          	im 0
    14de:	d7          	im -41
    14df:	a0          	im 32
    14e0:	0b          	nop
    14e1:	88          	im 8
    14e2:	05          	add
    14e3:	08          	load
    14e4:	74          	loadsp 16
    14e5:	76          	loadsp 24
    14e6:	31          	sub
    14e7:	81          	im 1
    14e8:	07          	or
    14e9:	84          	im 4
    14ea:	12          	addsp 8
    14eb:	0c          	store
    14ec:	53          	storesp 12

000014ed <.LM14>:
    14ed:	80          	im 0
    14ee:	d6          	im -42
    14ef:	e4          	im -28
    14f0:	08          	load
    14f1:	75          	loadsp 20
    14f2:	31          	sub
    14f3:	80          	im 0
    14f4:	d6          	im -42
    14f5:	e4          	im -28
    14f6:	0c          	store

000014f7 <.LM15>:
    14f7:	75          	loadsp 20
    14f8:	51          	storesp 4
    14f9:	97          	im 23
    14fa:	a2          	im 34
    14fb:	3f          	callpcrel

000014fc <.LM16>:
    14fc:	81          	im 1

000014fd <.LM17>:
    14fd:	0b          	nop
    14fe:	80          	im 0
    14ff:	0c          	store
    1500:	87          	im 7
    1501:	3d          	pushspadd
    1502:	0d          	popsp
    1503:	04          	poppc

00001504 <.L11>:
    1504:	80          	im 0
    1505:	52          	storesp 8
    1506:	75          	loadsp 20
    1507:	51          	storesp 4
    1508:	97          	im 23
    1509:	94          	im 20
    150a:	3f          	callpcrel

0000150b <.LM19>:
    150b:	80          	im 0
    150c:	d7          	im -41
    150d:	a0          	im 32
    150e:	0b          	nop
    150f:	88          	im 8
    1510:	05          	add
    1511:	08          	load
    1512:	80          	im 0
    1513:	08          	load
    1514:	71          	loadsp 4
    1515:	31          	sub
    1516:	54          	storesp 16
    1517:	54          	storesp 16

00001518 <.LM20>:
    1518:	8f          	im 15
    1519:	73          	loadsp 12
    151a:	25          	lessthanorequal
    151b:	ff          	im -1
    151c:	a4          	im 36
    151d:	38          	neqbranch

0000151e <.LM21>:
    151e:	80          	im 0
    151f:	08          	load
    1520:	80          	im 0
    1521:	d7          	im -41
    1522:	94          	im 20
    1523:	08          	load
    1524:	31          	sub
    1525:	80          	im 0
    1526:	d6          	im -42
    1527:	e4          	im -28
    1528:	0c          	store

00001529 <.LM22>:
    1529:	72          	loadsp 8
    152a:	81          	im 1
    152b:	07          	or
    152c:	84          	im 4
    152d:	15          	addsp 20
    152e:	0c          	store

0000152f <.LM23>:
    152f:	75          	loadsp 20
    1530:	51          	storesp 4
    1531:	96          	im 22
    1532:	ea          	im -22
    1533:	3f          	callpcrel

00001534 <.LM24>:
    1534:	80          	im 0
    1535:	53          	storesp 12
    1536:	ff          	im -1
    1537:	90          	im 16
    1538:	39          	poppcrel

00001539 <_free_r>:
    1539:	f7          	im -9
    153a:	3d          	pushspadd
    153b:	0d          	popsp
    153c:	7b          	loadsp 44
    153d:	7d          	loadsp 52
    153e:	54          	storesp 16
    153f:	5a          	storesp 40

00001540 <.LM26>:
    1540:	72          	loadsp 8
    1541:	80          	im 0
    1542:	2e          	eq
    1543:	82          	im 2
    1544:	83          	im 3
    1545:	38          	neqbranch

00001546 <.LM27>:
    1546:	79          	loadsp 36
    1547:	51          	storesp 4
    1548:	96          	im 22
    1549:	d2          	im -46
    154a:	3f          	callpcrel

0000154b <.LM28>:
    154b:	f8          	im -8
    154c:	13          	addsp 12

0000154d <.LM29>:
    154d:	84          	im 4
    154e:	11          	addsp 4
    154f:	08          	load

00001550 <.LM30>:
    1550:	70          	loadsp 0
    1551:	fe          	im -2
    1552:	06          	and

00001553 <.LM31>:
    1553:	70          	loadsp 0
    1554:	13          	addsp 12

00001555 <.LM32>:
    1555:	84          	im 4
    1556:	11          	addsp 4
    1557:	08          	load
    1558:	fc          	im -4
    1559:	06          	and
    155a:	5c          	storesp 48
    155b:	57          	storesp 28
    155c:	58          	storesp 32
    155d:	54          	storesp 16
    155e:	57          	storesp 28

0000155f <.LM33>:
    155f:	80          	im 0
    1560:	d7          	im -41
    1561:	a8          	im 40
    1562:	08          	load
    1563:	74          	loadsp 16
    1564:	2e          	eq
    1565:	82          	im 2
    1566:	de          	im -34
    1567:	38          	neqbranch

00001568 <.LM34>:
    1568:	77          	loadsp 28
    1569:	84          	im 4
    156a:	15          	addsp 20
    156b:	0c          	store

0000156c <.LM35>:
    156c:	80          	im 0

0000156d <.LM36>:
    156d:	73          	loadsp 12
    156e:	81          	im 1
    156f:	06          	and
    1570:	56          	storesp 24
    1571:	59          	storesp 36
    1572:	74          	loadsp 16
    1573:	79          	loadsp 36
    1574:	2e          	eq
    1575:	81          	im 1
    1576:	d5          	im -43
    1577:	38          	neqbranch

00001578 <.L17>:
    1578:	77          	loadsp 28
    1579:	14          	addsp 16
    157a:	84          	im 4
    157b:	11          	addsp 4
    157c:	08          	load
    157d:	81          	im 1
    157e:	06          	and
    157f:	56          	storesp 24
    1580:	53          	storesp 12
    1581:	74          	loadsp 16
    1582:	a0          	im 32
    1583:	38          	neqbranch

00001584 <.LM38>:
    1584:	77          	loadsp 28
    1585:	16          	addsp 24
    1586:	56          	storesp 24

00001587 <.LM39>:
    1587:	78          	loadsp 32
    1588:	81          	im 1
    1589:	e6          	im -26
    158a:	38          	neqbranch
    158b:	88          	im 8
    158c:	14          	addsp 16
    158d:	08          	load
    158e:	55          	storesp 20
    158f:	74          	loadsp 16
    1590:	80          	im 0
    1591:	d7          	im -41
    1592:	a8          	im 40
    1593:	2e          	eq
    1594:	82          	im 2
    1595:	f9          	im -7
    1596:	38          	neqbranch

00001597 <.LM40>:
    1597:	8c          	im 12
    1598:	14          	addsp 16
    1599:	08          	load
    159a:	70          	loadsp 0
    159b:	8c          	im 12
    159c:	17          	addsp 28
    159d:	0c          	store
    159e:	75          	loadsp 20
    159f:	88          	im 8
    15a0:	12          	addsp 8
    15a1:	0c          	store
    15a2:	58          	storesp 32

000015a3 <.L20>:
    15a3:	75          	loadsp 20
    15a4:	81          	im 1
    15a5:	07          	or
    15a6:	84          	im 4
    15a7:	18          	addsp 32
    15a8:	0c          	store

000015a9 <.LM42>:
    15a9:	75          	loadsp 20
    15aa:	17          	addsp 28
    15ab:	76          	loadsp 24
    15ac:	71          	loadsp 4
    15ad:	0c          	store
    15ae:	54          	storesp 16

000015af <.LM43>:
    15af:	78          	loadsp 32
    15b0:	81          	im 1
    15b1:	91          	im 17
    15b2:	38          	neqbranch

000015b3 <.LM44>:
    15b3:	83          	im 3
    15b4:	ff          	im -1
    15b5:	76          	loadsp 24
    15b6:	27          	ulessthanorequal
    15b7:	81          	im 1
    15b8:	c8          	im -56
    15b9:	38          	neqbranch
    15ba:	75          	loadsp 20
    15bb:	89          	im 9
    15bc:	2a          	lshiftright
    15bd:	76          	loadsp 24
    15be:	83          	im 3
    15bf:	2a          	lshiftright
    15c0:	54          	storesp 16
    15c1:	54          	storesp 16
    15c2:	73          	loadsp 12
    15c3:	80          	im 0
    15c4:	2e          	eq
    15c5:	bf          	im 63
    15c6:	38          	neqbranch
    15c7:	75          	loadsp 20
    15c8:	86          	im 6
    15c9:	2a          	lshiftright
    15ca:	b8          	im 56
    15cb:	05          	add
    15cc:	53          	storesp 12
    15cd:	84          	im 4
    15ce:	74          	loadsp 16
    15cf:	27          	ulessthanorequal
    15d0:	b4          	im 52
    15d1:	38          	neqbranch
    15d2:	80          	im 0
    15d3:	db          	im -37
    15d4:	14          	addsp 16
    15d5:	53          	storesp 12
    15d6:	94          	im 20
    15d7:	74          	loadsp 16
    15d8:	27          	ulessthanorequal
    15d9:	ab          	im 43
    15da:	38          	neqbranch
    15db:	75          	loadsp 20
    15dc:	8c          	im 12
    15dd:	2a          	lshiftright
    15de:	80          	im 0
    15df:	ee          	im -18
    15e0:	05          	add
    15e1:	53          	storesp 12
    15e2:	80          	im 0
    15e3:	d4          	im -44
    15e4:	74          	loadsp 16
    15e5:	27          	ulessthanorequal
    15e6:	9e          	im 30
    15e7:	38          	neqbranch
    15e8:	75          	loadsp 20
    15e9:	8f          	im 15
    15ea:	2a          	lshiftright
    15eb:	80          	im 0
    15ec:	f7          	im -9
    15ed:	05          	add
    15ee:	53          	storesp 12
    15ef:	82          	im 2
    15f0:	d4          	im -44
    15f1:	74          	loadsp 16
    15f2:	27          	ulessthanorequal
    15f3:	91          	im 17
    15f4:	38          	neqbranch
    15f5:	75          	loadsp 20
    15f6:	92          	im 18
    15f7:	2a          	lshiftright
    15f8:	80          	im 0
    15f9:	fc          	im -4
    15fa:	05          	add
    15fb:	53          	storesp 12
    15fc:	8a          	im 10
    15fd:	d4          	im -44
    15fe:	74          	loadsp 16
    15ff:	27          	ulessthanorequal
    1600:	84          	im 4
    1601:	38          	neqbranch
    1602:	80          	im 0
    1603:	fe          	im -2
    1604:	53          	storesp 12

00001605 <.L28>:
    1605:	72          	loadsp 8
    1606:	10          	addsp 0
    1607:	10          	addsp 0
    1608:	10          	addsp 0
    1609:	80          	im 0
    160a:	d7          	im -41
    160b:	a0          	im 32
    160c:	05          	add
    160d:	88          	im 8
    160e:	11          	addsp 4
    160f:	08          	load
    1610:	55          	storesp 20
    1611:	55          	storesp 20
    1612:	73          	loadsp 12
    1613:	75          	loadsp 20
    1614:	2e          	eq
    1615:	82          	im 2
    1616:	bf          	im 63
    1617:	38          	neqbranch

00001618 <.L46>:
    1618:	84          	im 4
    1619:	14          	addsp 16
    161a:	08          	load
    161b:	fc          	im -4
    161c:	06          	and
    161d:	59          	storesp 36
    161e:	75          	loadsp 20
    161f:	79          	loadsp 36
    1620:	27          	ulessthanorequal
    1621:	8d          	im 13
    1622:	38          	neqbranch
    1623:	88          	im 8
    1624:	14          	addsp 16
    1625:	08          	load
    1626:	54          	storesp 16
    1627:	73          	loadsp 12
    1628:	75          	loadsp 20
    1629:	2e          	eq
    162a:	09          	not
    162b:	81          	im 1
    162c:	06          	and
    162d:	ea          	im -22
    162e:	38          	neqbranch

0000162f <.L43>:
    162f:	8c          	im 12
    1630:	14          	addsp 16
    1631:	08          	load
    1632:	70          	loadsp 0
    1633:	8c          	im 12
    1634:	19          	addsp 36
    1635:	0c          	store
    1636:	74          	loadsp 16
    1637:	88          	im 8
    1638:	19          	addsp 36
    1639:	0c          	store
    163a:	77          	loadsp 28
    163b:	88          	im 8
    163c:	12          	addsp 8
    163d:	0c          	store
    163e:	55          	storesp 20

0000163f <.L50>:
    163f:	76          	loadsp 24
    1640:	8c          	im 12
    1641:	15          	addsp 20
    1642:	0c          	store

00001643 <.L23>:
    1643:	79          	loadsp 36
    1644:	51          	storesp 4
    1645:	94          	im 20
    1646:	d6          	im -42
    1647:	3f          	callpcrel

00001648 <.L12>:
    1648:	8b          	im 11
    1649:	3d          	pushspadd
    164a:	0d          	popsp
    164b:	04          	poppc

0000164c <.L53>:
    164c:	76          	loadsp 24
    164d:	08          	load

0000164e <.LM48>:
    164e:	77          	loadsp 28
    164f:	71          	loadsp 4
    1650:	31          	sub

00001651 <.LM49>:
    1651:	58          	storesp 32
    1652:	76          	loadsp 24
    1653:	05          	add

00001654 <.LM50>:
    1654:	88          	im 8
    1655:	18          	addsp 32
    1656:	08          	load
    1657:	56          	storesp 24
    1658:	56          	storesp 24
    1659:	74          	loadsp 16
    165a:	80          	im 0
    165b:	d7          	im -41
    165c:	a8          	im 40
    165d:	2e          	eq
    165e:	80          	im 0
    165f:	e0          	im -32
    1660:	38          	neqbranch

00001661 <.LM51>:
    1661:	8c          	im 12
    1662:	17          	addsp 28
    1663:	08          	load
    1664:	70          	loadsp 0
    1665:	8c          	im 12
    1666:	17          	addsp 28
    1667:	0c          	store
    1668:	75          	loadsp 20
    1669:	88          	im 8
    166a:	12          	addsp 8
    166b:	0c          	store
    166c:	53          	storesp 12
    166d:	fe          	im -2
    166e:	89          	im 9
    166f:	39          	poppcrel

00001670 <.L47>:
    1670:	88          	im 8
    1671:	14          	addsp 16
    1672:	08          	load

00001673 <.LM52>:
    1673:	8c          	im 12
    1674:	15          	addsp 20
    1675:	08          	load
    1676:	70          	loadsp 0
    1677:	8c          	im 12
    1678:	13          	addsp 12
    1679:	0c          	store
    167a:	59          	storesp 36
    167b:	88          	im 8
    167c:	19          	addsp 36
    167d:	0c          	store
    167e:	fe          	im -2
    167f:	a3          	im 35
    1680:	39          	poppcrel

00001681 <.L55>:
    1681:	75          	loadsp 20
    1682:	83          	im 3
    1683:	2a          	lshiftright
    1684:	70          	loadsp 0
    1685:	54          	storesp 16
    1686:	54          	storesp 16
    1687:	80          	im 0
    1688:	74          	loadsp 16
    1689:	24          	lessthan
    168a:	81          	im 1
    168b:	98          	im 24
    168c:	38          	neqbranch
    168d:	72          	loadsp 8
    168e:	82          	im 2
    168f:	2c          	ashiftright
    1690:	81          	im 1
    1691:	71          	loadsp 4
    1692:	2b          	ashiftleft
    1693:	80          	im 0
    1694:	d7          	im -41
    1695:	a4          	im 36
    1696:	08          	load
    1697:	07          	or
    1698:	80          	im 0
    1699:	d7          	im -41
    169a:	a0          	im 32
    169b:	0b          	nop
    169c:	84          	im 4
    169d:	05          	add
    169e:	0c          	store
    169f:	74          	loadsp 16
    16a0:	10          	addsp 0
    16a1:	10          	addsp 0
    16a2:	10          	addsp 0
    16a3:	80          	im 0
    16a4:	d7          	im -41
    16a5:	a0          	im 32
    16a6:	05          	add
    16a7:	88          	im 8
    16a8:	11          	addsp 4
    16a9:	08          	load
    16aa:	71          	loadsp 4
    16ab:	8c          	im 12
    16ac:	1b          	addsp 44
    16ad:	0c          	store
    16ae:	70          	loadsp 0
    16af:	88          	im 8
    16b0:	1b          	addsp 44
    16b1:	0c          	store
    16b2:	79          	loadsp 36
    16b3:	88          	im 8
    16b4:	13          	addsp 12
    16b5:	0c          	store
    16b6:	56          	storesp 24
    16b7:	5a          	storesp 40
    16b8:	55          	storesp 20

000016b9 <.L59>:
    16b9:	76          	loadsp 24
    16ba:	8c          	im 12
    16bb:	15          	addsp 20
    16bc:	0c          	store
    16bd:	ff          	im -1
    16be:	84          	im 4
    16bf:	39          	poppcrel

000016c0 <.L57>:
    16c0:	81          	im 1
    16c1:	59          	storesp 36
    16c2:	fd          	im -3
    16c3:	b4          	im 52
    16c4:	39          	poppcrel

000016c5 <.L52>:
    16c5:	77          	loadsp 28
    16c6:	16          	addsp 24

000016c7 <.LM56>:
    16c7:	73          	loadsp 12
    16c8:	81          	im 1
    16c9:	06          	and
    16ca:	54          	storesp 16
    16cb:	55          	storesp 20
    16cc:	72          	loadsp 8
    16cd:	98          	im 24
    16ce:	38          	neqbranch

000016cf <.LM57>:
    16cf:	76          	loadsp 24
    16d0:	08          	load

000016d1 <.LM58>:
    16d1:	77          	loadsp 28
    16d2:	71          	loadsp 4
    16d3:	31          	sub

000016d4 <.LM59>:
    16d4:	58          	storesp 32
    16d5:	75          	loadsp 20
    16d6:	05          	add

000016d7 <.LM60>:
    16d7:	8c          	im 12
    16d8:	18          	addsp 32
    16d9:	08          	load
    16da:	88          	im 8
    16db:	19          	addsp 36
    16dc:	08          	load
    16dd:	71          	loadsp 4
    16de:	8c          	im 12
    16df:	12          	addsp 8
    16e0:	0c          	store
    16e1:	88          	im 8
    16e2:	12          	addsp 8
    16e3:	0c          	store
    16e4:	55          	storesp 20
    16e5:	55          	storesp 20

000016e6 <.L15>:
    16e6:	74          	loadsp 16
    16e7:	81          	im 1
    16e8:	07          	or
    16e9:	84          	im 4
    16ea:	18          	addsp 32
    16eb:	0c          	store

000016ec <.LM62>:
    16ec:	76          	loadsp 24
    16ed:	80          	im 0
    16ee:	d7          	im -41
    16ef:	a0          	im 32
    16f0:	0b          	nop
    16f1:	88          	im 8
    16f2:	05          	add
    16f3:	0c          	store

000016f4 <.LM63>:
    16f4:	80          	im 0
    16f5:	d7          	im -41
    16f6:	9c          	im 28
    16f7:	08          	load
    16f8:	75          	loadsp 20
    16f9:	26          	ulessthan
    16fa:	fe          	im -2
    16fb:	c7          	im -57
    16fc:	38          	neqbranch

000016fd <.LM64>:
    16fd:	80          	im 0
    16fe:	d7          	im -41
    16ff:	98          	im 24
    1700:	08          	load
    1701:	52          	storesp 8
    1702:	79          	loadsp 36
    1703:	51          	storesp 4
    1704:	fa          	im -6
    1705:	fd          	im -3
    1706:	3f          	callpcrel

00001707 <.LM65>:
    1707:	79          	loadsp 36
    1708:	51          	storesp 4
    1709:	93          	im 19
    170a:	92          	im 18
    170b:	3f          	callpcrel
    170c:	fe          	im -2
    170d:	ba          	im 58
    170e:	39          	poppcrel

0000170f <.L54>:
    170f:	81          	im 1

00001710 <.LM67>:
    1710:	77          	loadsp 28
    1711:	8c          	im 12
    1712:	17          	addsp 28
    1713:	0c          	store
    1714:	77          	loadsp 28
    1715:	88          	im 8
    1716:	17          	addsp 28
    1717:	0c          	store
    1718:	75          	loadsp 20
    1719:	8c          	im 12
    171a:	19          	addsp 36
    171b:	0c          	store
    171c:	75          	loadsp 20
    171d:	88          	im 8
    171e:	19          	addsp 36
    171f:	0c          	store
    1720:	59          	storesp 36
    1721:	fd          	im -3
    1722:	80          	im 0
    1723:	39          	poppcrel

00001724 <.L58>:
    1724:	83          	im 3
    1725:	14          	addsp 16
    1726:	70          	loadsp 0
    1727:	82          	im 2
    1728:	2c          	ashiftright
    1729:	81          	im 1
    172a:	71          	loadsp 4
    172b:	2b          	ashiftleft
    172c:	80          	im 0
    172d:	d7          	im -41
    172e:	a4          	im 36
    172f:	08          	load
    1730:	07          	or
    1731:	80          	im 0
    1732:	d7          	im -41
    1733:	a0          	im 32
    1734:	0b          	nop
    1735:	84          	im 4
    1736:	05          	add
    1737:	0c          	store
    1738:	75          	loadsp 20
    1739:	10          	addsp 0
    173a:	10          	addsp 0
    173b:	10          	addsp 0
    173c:	80          	im 0
    173d:	d7          	im -41
    173e:	a0          	im 32
    173f:	05          	add
    1740:	88          	im 8
    1741:	11          	addsp 4
    1742:	08          	load
    1743:	71          	loadsp 4
    1744:	8c          	im 12
    1745:	1c          	addsp 48
    1746:	0c          	store
    1747:	70          	loadsp 0
    1748:	88          	im 8
    1749:	1c          	addsp 48
    174a:	0c          	store
    174b:	7a          	loadsp 40
    174c:	88          	im 8
    174d:	13          	addsp 12
    174e:	0c          	store
    174f:	57          	storesp 28
    1750:	5b          	storesp 44
    1751:	56          	storesp 24
    1752:	53          	storesp 12
    1753:	fe          	im -2
    1754:	e4          	im -28
    1755:	39          	poppcrel

00001756 <.L56>:
    1756:	80          	im 0
    1757:	73          	loadsp 12
    1758:	24          	lessthan
    1759:	a3          	im 35
    175a:	38          	neqbranch
    175b:	72          	loadsp 8
    175c:	82          	im 2
    175d:	2c          	ashiftright
    175e:	81          	im 1
    175f:	71          	loadsp 4
    1760:	2b          	ashiftleft
    1761:	80          	im 0
    1762:	d7          	im -41
    1763:	a4          	im 36
    1764:	08          	load
    1765:	07          	or
    1766:	80          	im 0
    1767:	d7          	im -41
    1768:	a0          	im 32
    1769:	0b          	nop
    176a:	84          	im 4
    176b:	05          	add
    176c:	0c          	store
    176d:	58          	storesp 32

0000176e <.L61>:
    176e:	74          	loadsp 16
    176f:	8c          	im 12
    1770:	18          	addsp 32
    1771:	0c          	store
    1772:	73          	loadsp 12
    1773:	88          	im 8
    1774:	18          	addsp 32
    1775:	0c          	store
    1776:	76          	loadsp 24
    1777:	88          	im 8
    1778:	16          	addsp 24
    1779:	0c          	store
    177a:	fd          	im -3
    177b:	c3          	im -61
    177c:	39          	poppcrel

0000177d <.L60>:
    177d:	83          	im 3
    177e:	13          	addsp 12
    177f:	70          	loadsp 0
    1780:	82          	im 2
    1781:	2c          	ashiftright
    1782:	81          	im 1
    1783:	71          	loadsp 4
    1784:	2b          	ashiftleft
    1785:	80          	im 0
    1786:	d7          	im -41
    1787:	a4          	im 36
    1788:	08          	load
    1789:	07          	or
    178a:	80          	im 0
    178b:	d7          	im -41
    178c:	a0          	im 32
    178d:	0b          	nop
    178e:	84          	im 4
    178f:	05          	add
    1790:	0c          	store
    1791:	59          	storesp 36
    1792:	53          	storesp 12
    1793:	da          	im -38
    1794:	39          	poppcrel

00001795 <_fwalk>:
    1795:	f9          	im -7
    1796:	3d          	pushspadd
    1797:	0d          	popsp
    1798:	79          	loadsp 36
    1799:	7b          	loadsp 44
    179a:	58          	storesp 32
    179b:	53          	storesp 12

0000179c <.LM2>:
    179c:	80          	im 0

0000179d <.LM3>:
    179d:	0b          	nop
    179e:	80          	im 0
    179f:	cf          	im -49
    17a0:	e4          	im -28
    17a1:	08          	load
    17a2:	53          	storesp 12
    17a3:	56          	storesp 24
    17a4:	72          	loadsp 8
    17a5:	72          	loadsp 8
    17a6:	2e          	eq
    17a7:	bc          	im 60
    17a8:	38          	neqbranch

000017a9 <.LM4>:
    17a9:	84          	im 4
    17aa:	dc          	im -36
    17ab:	13          	addsp 12
    17ac:	55          	storesp 20
    17ad:	74          	loadsp 16
    17ae:	76          	loadsp 24
    17af:	2e          	eq
    17b0:	b3          	im 51
    17b1:	38          	neqbranch

000017b2 <.L28>:
    17b2:	88          	im 8
    17b3:	15          	addsp 20
    17b4:	08          	load
    17b5:	84          	im 4
    17b6:	16          	addsp 24
    17b7:	08          	load
    17b8:	ff          	im -1
    17b9:	05          	add
    17ba:	54          	storesp 16
    17bb:	54          	storesp 16
    17bc:	80          	im 0
    17bd:	73          	loadsp 12
    17be:	24          	lessthan
    17bf:	99          	im 25
    17c0:	38          	neqbranch

000017c1 <.L42>:
    17c1:	8c          	im 12
    17c2:	14          	addsp 16
    17c3:	22          	loadh
    17c4:	70          	loadsp 0
    17c5:	90          	im 16
    17c6:	2b          	ashiftleft
    17c7:	53          	storesp 12
    17c8:	58          	storesp 32
    17c9:	71          	loadsp 4
    17ca:	80          	im 0
    17cb:	d4          	im -44
    17cc:	38          	neqbranch

000017cd <.LM7>:
    17cd:	80          	im 0
    17ce:	dc          	im -36
    17cf:	14          	addsp 16
    17d0:	ff          	im -1
    17d1:	14          	addsp 16
    17d2:	54          	storesp 16
    17d3:	54          	storesp 16

000017d4 <.L46>:
    17d4:	72          	loadsp 8
    17d5:	80          	im 0
    17d6:	25          	lessthanorequal
    17d7:	e9          	im -23
    17d8:	38          	neqbranch

000017d9 <.L23>:
    17d9:	74          	loadsp 16
    17da:	08          	load
    17db:	55          	storesp 20
    17dc:	74          	loadsp 16
    17dd:	d4          	im -44
    17de:	38          	neqbranch
    17df:	80          	im 0
    17e0:	cf          	im -49
    17e1:	e4          	im -28
    17e2:	08          	load
    17e3:	52          	storesp 8

000017e4 <.L2>:
    17e4:	84          	im 4
    17e5:	dc          	im -36
    17e6:	12          	addsp 8
    17e7:	55          	storesp 20
    17e8:	74          	loadsp 16
    17e9:	80          	im 0
    17ea:	2e          	eq
    17eb:	ad          	im 45
    17ec:	38          	neqbranch

000017ed <.L45>:
    17ed:	88          	im 8
    17ee:	15          	addsp 20
    17ef:	08          	load
    17f0:	84          	im 4
    17f1:	16          	addsp 24
    17f2:	08          	load
    17f3:	ff          	im -1
    17f4:	05          	add
    17f5:	54          	storesp 16
    17f6:	54          	storesp 16
    17f7:	80          	im 0
    17f8:	73          	loadsp 12
    17f9:	24          	lessthan
    17fa:	98          	im 24
    17fb:	38          	neqbranch

000017fc <.L44>:
    17fc:	8c          	im 12
    17fd:	14          	addsp 16
    17fe:	22          	loadh
    17ff:	70          	loadsp 0
    1800:	90          	im 16
    1801:	2b          	ashiftleft
    1802:	53          	storesp 12
    1803:	58          	storesp 32
    1804:	71          	loadsp 4
    1805:	ad          	im 45
    1806:	38          	neqbranch

00001807 <.LM12>:
    1807:	80          	im 0
    1808:	dc          	im -36
    1809:	14          	addsp 16
    180a:	ff          	im -1
    180b:	14          	addsp 16
    180c:	54          	storesp 16
    180d:	54          	storesp 16

0000180e <.L47>:
    180e:	72          	loadsp 8
    180f:	80          	im 0
    1810:	25          	lessthanorequal
    1811:	ea          	im -22
    1812:	38          	neqbranch

00001813 <.L27>:
    1813:	74          	loadsp 16
    1814:	08          	load
    1815:	55          	storesp 20
    1816:	74          	loadsp 16
    1817:	d5          	im -43
    1818:	38          	neqbranch

00001819 <.L25>:
    1819:	75          	loadsp 20
    181a:	80          	im 0
    181b:	0c          	store
    181c:	89          	im 9
    181d:	3d          	pushspadd
    181e:	0d          	popsp
    181f:	04          	poppc

00001820 <.L41>:
    1820:	73          	loadsp 12
    1821:	51          	storesp 4
    1822:	76          	loadsp 24
    1823:	2d          	call
    1824:	75          	loadsp 20
    1825:	80          	im 0
    1826:	08          	load
    1827:	07          	or

00001828 <.LM16>:
    1828:	80          	im 0
    1829:	dc          	im -36
    182a:	15          	addsp 20
    182b:	ff          	im -1
    182c:	15          	addsp 20
    182d:	55          	storesp 20
    182e:	55          	storesp 20
    182f:	56          	storesp 24
    1830:	ff          	im -1
    1831:	a2          	im 34
    1832:	39          	poppcrel

00001833 <.L43>:
    1833:	73          	loadsp 12
    1834:	51          	storesp 4
    1835:	76          	loadsp 24
    1836:	2d          	call
    1837:	75          	loadsp 20
    1838:	80          	im 0
    1839:	08          	load
    183a:	07          	or

0000183b <.LM18>:
    183b:	80          	im 0
    183c:	dc          	im -36
    183d:	15          	addsp 20
    183e:	ff          	im -1
    183f:	15          	addsp 20
    1840:	55          	storesp 20
    1841:	55          	storesp 20
    1842:	56          	storesp 24
    1843:	ca          	im -54
    1844:	39          	poppcrel

00001845 <__smakebuf>:
    1845:	ea          	im -22
    1846:	3d          	pushspadd
    1847:	0d          	popsp
    1848:	68          	loadsp 96

00001849 <.LM2>:
    1849:	8c          	im 12
    184a:	11          	addsp 4
    184b:	22          	loadh
    184c:	70          	loadsp 0
    184d:	0a          	flip
    184e:	10          	addsp 0
    184f:	0a          	flip
    1850:	81          	im 1
    1851:	06          	and
    1852:	57          	storesp 28
    1853:	58          	storesp 32
    1854:	56          	storesp 24
    1855:	74          	loadsp 16
    1856:	80          	im 0
    1857:	e4          	im -28
    1858:	38          	neqbranch

00001859 <.LM3>:
    1859:	8e          	im 14
    185a:	16          	addsp 24
    185b:	22          	loadh
    185c:	70          	loadsp 0
    185d:	90          	im 16
    185e:	2b          	ashiftleft
    185f:	70          	loadsp 0
    1860:	90          	im 16
    1861:	2c          	ashiftright
    1862:	51          	storesp 4
    1863:	55          	storesp 20
    1864:	58          	storesp 32
    1865:	80          	im 0
    1866:	74          	loadsp 16
    1867:	24          	lessthan
    1868:	b1          	im 49
    1869:	38          	neqbranch
    186a:	98          	im 24
    186b:	3d          	pushspadd
    186c:	c4          	im -60
    186d:	05          	add
    186e:	53          	storesp 12
    186f:	73          	loadsp 12
    1870:	52          	storesp 8
    1871:	80          	im 0
    1872:	cf          	im -49
    1873:	e4          	im -28
    1874:	08          	load
    1875:	51          	storesp 4
    1876:	94          	im 20
    1877:	81          	im 1
    1878:	3f          	callpcrel
    1879:	80          	im 0
    187a:	0b          	nop
    187b:	80          	im 0
    187c:	08          	load
    187d:	24          	lessthan
    187e:	97          	im 23
    187f:	38          	neqbranch

00001880 <.LM4>:
    1880:	79          	loadsp 36
    1881:	83          	im 3
    1882:	e0          	im -32
    1883:	80          	im 0
    1884:	06          	and
    1885:	54          	storesp 16
    1886:	73          	loadsp 12
    1887:	80          	im 0
    1888:	c0          	im -64
    1889:	80          	im 0
    188a:	2e          	eq
    188b:	81          	im 1
    188c:	8f          	im 15
    188d:	38          	neqbranch

0000188e <.LM5>:
    188e:	73          	loadsp 12
    188f:	82          	im 2
    1890:	80          	im 0
    1891:	80          	im 0
    1892:	2e          	eq
    1893:	81          	im 1
    1894:	91          	im 17
    1895:	38          	neqbranch

00001896 <.L7>:
    1896:	8c          	im 12
    1897:	16          	addsp 24
    1898:	22          	loadh
    1899:	57          	storesp 28

0000189a <.L12>:
    189a:	76          	loadsp 24
    189b:	90          	im 16
    189c:	80          	im 0
    189d:	07          	or
    189e:	54          	storesp 16
    189f:	73          	loadsp 12
    18a0:	8c          	im 12
    18a1:	17          	addsp 28
    18a2:	23          	storeh

000018a3 <.L5>:
    18a3:	88          	im 8
    18a4:	80          	im 0
    18a5:	52          	storesp 8
    18a6:	80          	im 0
    18a7:	cf          	im -49
    18a8:	e4          	im -28
    18a9:	08          	load
    18aa:	51          	storesp 4
    18ab:	81          	im 1
    18ac:	9b          	im 27
    18ad:	3f          	callpcrel
    18ae:	80          	im 0
    18af:	08          	load
    18b0:	9d          	im 29
    18b1:	38          	neqbranch

000018b2 <.LM8>:
    18b2:	8c          	im 12
    18b3:	16          	addsp 24
    18b4:	22          	loadh
    18b5:	82          	im 2
    18b6:	07          	or
    18b7:	55          	storesp 20
    18b8:	74          	loadsp 16
    18b9:	8c          	im 12
    18ba:	17          	addsp 28
    18bb:	23          	storeh

000018bc <.L13>:
    18bc:	80          	im 0
    18bd:	c3          	im -61
    18be:	16          	addsp 24
    18bf:	70          	loadsp 0
    18c0:	77          	loadsp 28
    18c1:	0c          	store
    18c2:	90          	im 16
    18c3:	17          	addsp 28
    18c4:	0c          	store

000018c5 <.LM10>:
    18c5:	81          	im 1
    18c6:	0b          	nop
    18c7:	94          	im 20
    18c8:	17          	addsp 28
    18c9:	0c          	store

000018ca <.L1>:
    18ca:	98          	im 24
    18cb:	3d          	pushspadd
    18cc:	0d          	popsp
    18cd:	04          	poppc

000018ce <.L9>:
    18ce:	80          	im 0
    18cf:	cf          	im -49
    18d0:	e4          	im -28
    18d1:	08          	load
    18d2:	a8          	im 40
    18d3:	e6          	im -26
    18d4:	0b          	nop
    18d5:	bc          	im 60
    18d6:	12          	addsp 8
    18d7:	0c          	store
    18d8:	58          	storesp 32

000018d9 <.LM13>:
    18d9:	8c          	im 12
    18da:	16          	addsp 24
    18db:	22          	loadh
    18dc:	81          	im 1
    18dd:	80          	im 0
    18de:	07          	or
    18df:	54          	storesp 16
    18e0:	73          	loadsp 12
    18e1:	8c          	im 12
    18e2:	17          	addsp 28
    18e3:	23          	storeh

000018e4 <.LM14>:
    18e4:	80          	im 0
    18e5:	08          	load
    18e6:	76          	loadsp 24
    18e7:	0c          	store
    18e8:	80          	im 0
    18e9:	08          	load
    18ea:	90          	im 16
    18eb:	17          	addsp 28
    18ec:	0c          	store

000018ed <.LM15>:
    18ed:	88          	im 8
    18ee:	80          	im 0
    18ef:	0b          	nop
    18f0:	94          	im 20
    18f1:	17          	addsp 28
    18f2:	0c          	store

000018f3 <.LM16>:
    18f3:	74          	loadsp 16
    18f4:	80          	im 0
    18f5:	2e          	eq
    18f6:	d3          	im -45
    18f7:	38          	neqbranch
    18f8:	8e          	im 14
    18f9:	16          	addsp 24
    18fa:	22          	loadh
    18fb:	70          	loadsp 0
    18fc:	90          	im 16
    18fd:	2b          	ashiftleft
    18fe:	70          	loadsp 0
    18ff:	90          	im 16
    1900:	2c          	ashiftright
    1901:	53          	storesp 12
    1902:	56          	storesp 24
    1903:	54          	storesp 16
    1904:	9a          	im 26
    1905:	fe          	im -2
    1906:	3f          	callpcrel
    1907:	80          	im 0
    1908:	08          	load
    1909:	80          	im 0
    190a:	2e          	eq
    190b:	ff          	im -1
    190c:	bd          	im 61
    190d:	38          	neqbranch

0000190e <.LM17>:
    190e:	8c          	im 12
    190f:	16          	addsp 24
    1910:	22          	loadh
    1911:	81          	im 1
    1912:	07          	or
    1913:	57          	storesp 28
    1914:	76          	loadsp 24
    1915:	8c          	im 12
    1916:	17          	addsp 28
    1917:	23          	storeh

00001918 <.LM18>:
    1918:	98          	im 24
    1919:	3d          	pushspadd
    191a:	0d          	popsp
    191b:	04          	poppc

0000191c <.L15>:
    191c:	81          	im 1

0000191d <.LM20>:
    191d:	0b          	nop
    191e:	8c          	im 12
    191f:	17          	addsp 28
    1920:	22          	loadh
    1921:	58          	storesp 32
    1922:	55          	storesp 20
    1923:	fe          	im -2
    1924:	f5          	im -11
    1925:	39          	poppcrel

00001926 <.L16>:
    1926:	a8          	im 40
    1927:	16          	addsp 24
    1928:	08          	load
    1929:	80          	im 0
    192a:	c3          	im -61
    192b:	9d          	im 29
    192c:	2e          	eq
    192d:	09          	not
    192e:	81          	im 1
    192f:	06          	and
    1930:	fe          	im -2
    1931:	e4          	im -28
    1932:	38          	neqbranch

00001933 <.LM22>:
    1933:	8c          	im 12
    1934:	16          	addsp 24
    1935:	22          	loadh
    1936:	88          	im 8
    1937:	80          	im 0
    1938:	07          	or
    1939:	54          	storesp 16
    193a:	73          	loadsp 12
    193b:	8c          	im 12
    193c:	17          	addsp 28
    193d:	23          	storeh

0000193e <.LM23>:
    193e:	88          	im 8
    193f:	80          	im 0
    1940:	0b          	nop
    1941:	80          	im 0
    1942:	cc          	im -52
    1943:	17          	addsp 28
    1944:	0c          	store
    1945:	fe          	im -2
    1946:	dc          	im -36
    1947:	39          	poppcrel

00001948 <_malloc_r>:
    1948:	f4          	im -12
    1949:	3d          	pushspadd
    194a:	0d          	popsp
    194b:	7e          	loadsp 56
    194c:	60          	loadsp 64

0000194d <.LM2>:
    194d:	8b          	im 11
    194e:	11          	addsp 4
    194f:	70          	loadsp 0
    1950:	f8          	im -8
    1951:	06          	and
    1952:	5b          	storesp 44
    1953:	55          	storesp 20
    1954:	55          	storesp 20
    1955:	5d          	storesp 52
    1956:	72          	loadsp 8
    1957:	96          	im 22
    1958:	26          	ulessthan
    1959:	83          	im 3
    195a:	38          	neqbranch
    195b:	90          	im 16
    195c:	58          	storesp 32

0000195d <.L3>:
    195d:	80          	im 0
    195e:	78          	loadsp 32
    195f:	24          	lessthan
    1960:	74          	loadsp 16
    1961:	79          	loadsp 36
    1962:	26          	ulessthan
    1963:	07          	or
    1964:	55          	storesp 20

00001965 <.LM4>:
    1965:	80          	im 0
    1966:	54          	storesp 16

00001967 <.LM5>:
    1967:	74          	loadsp 16
    1968:	74          	loadsp 16
    1969:	2e          	eq
    196a:	09          	not
    196b:	81          	im 1
    196c:	06          	and
    196d:	80          	im 0
    196e:	ca          	im -54
    196f:	38          	neqbranch

00001970 <.LM6>:
    1970:	7c          	loadsp 48
    1971:	51          	storesp 4
    1972:	8e          	im 14
    1973:	a8          	im 40
    1974:	3f          	callpcrel

00001975 <.LM7>:
    1975:	77          	loadsp 28
    1976:	83          	im 3
    1977:	f7          	im -9
    1978:	26          	ulessthan
    1979:	80          	im 0
    197a:	c5          	im -59
    197b:	38          	neqbranch

0000197c <.LM8>:
    197c:	77          	loadsp 28
    197d:	83          	im 3
    197e:	2a          	lshiftright

0000197f <.LM9>:
    197f:	70          	loadsp 0
    1980:	10          	addsp 0
    1981:	10          	addsp 0
    1982:	10          	addsp 0
    1983:	80          	im 0
    1984:	d7          	im -41
    1985:	a0          	im 32
    1986:	05          	add

00001987 <.LM10>:
    1987:	8c          	im 12
    1988:	11          	addsp 4
    1989:	08          	load
    198a:	58          	storesp 32
    198b:	58          	storesp 32
    198c:	54          	storesp 16

0000198d <.LM11>:
    198d:	75          	loadsp 20
    198e:	77          	loadsp 28
    198f:	2e          	eq
    1990:	81          	im 1
    1991:	f0          	im -16
    1992:	38          	neqbranch

00001993 <.L103>:
    1993:	84          	im 4
    1994:	16          	addsp 24
    1995:	08          	load
    1996:	fc          	im -4
    1997:	06          	and

00001998 <.LM13>:
    1998:	8c          	im 12
    1999:	17          	addsp 28
    199a:	08          	load
    199b:	88          	im 8
    199c:	18          	addsp 32
    199d:	08          	load
    199e:	71          	loadsp 4
    199f:	8c          	im 12
    19a0:	12          	addsp 8
    19a1:	0c          	store
    19a2:	88          	im 8
    19a3:	12          	addsp 8
    19a4:	0c          	store
    19a5:	5b          	storesp 44

000019a6 <.LM14>:
    19a6:	76          	loadsp 24
    19a7:	05          	add

000019a8 <.LM15>:
    19a8:	84          	im 4
    19a9:	11          	addsp 4
    19aa:	08          	load
    19ab:	81          	im 1
    19ac:	07          	or
    19ad:	84          	im 4
    19ae:	12          	addsp 8
    19af:	0c          	store
    19b0:	53          	storesp 12

000019b1 <.L144>:
    19b1:	7c          	loadsp 48
    19b2:	51          	storesp 4
    19b3:	8d          	im 13
    19b4:	e8          	im -24
    19b5:	3f          	callpcrel

000019b6 <.LM17>:
    19b6:	88          	im 8
    19b7:	16          	addsp 24
    19b8:	54          	storesp 16

000019b9 <.L1>:
    19b9:	73          	loadsp 12
    19ba:	80          	im 0
    19bb:	0c          	store
    19bc:	8e          	im 14
    19bd:	3d          	pushspadd
    19be:	0d          	popsp
    19bf:	04          	poppc

000019c0 <.L7>:
    19c0:	77          	loadsp 28
    19c1:	89          	im 9
    19c2:	2a          	lshiftright
    19c3:	78          	loadsp 32
    19c4:	83          	im 3
    19c5:	2a          	lshiftright
    19c6:	58          	storesp 32
    19c7:	54          	storesp 16
    19c8:	73          	loadsp 12
    19c9:	80          	im 0
    19ca:	2e          	eq
    19cb:	bf          	im 63
    19cc:	38          	neqbranch
    19cd:	77          	loadsp 28
    19ce:	86          	im 6
    19cf:	2a          	lshiftright
    19d0:	b8          	im 56
    19d1:	05          	add
    19d2:	57          	storesp 28
    19d3:	84          	im 4
    19d4:	74          	loadsp 16
    19d5:	27          	ulessthanorequal
    19d6:	b4          	im 52
    19d7:	38          	neqbranch
    19d8:	80          	im 0
    19d9:	db          	im -37
    19da:	14          	addsp 16
    19db:	57          	storesp 28
    19dc:	94          	im 20
    19dd:	74          	loadsp 16
    19de:	27          	ulessthanorequal
    19df:	ab          	im 43
    19e0:	38          	neqbranch
    19e1:	77          	loadsp 28
    19e2:	8c          	im 12
    19e3:	2a          	lshiftright
    19e4:	80          	im 0
    19e5:	ee          	im -18
    19e6:	05          	add
    19e7:	57          	storesp 28
    19e8:	80          	im 0
    19e9:	d4          	im -44
    19ea:	74          	loadsp 16
    19eb:	27          	ulessthanorequal
    19ec:	9e          	im 30
    19ed:	38          	neqbranch
    19ee:	77          	loadsp 28
    19ef:	8f          	im 15
    19f0:	2a          	lshiftright
    19f1:	80          	im 0
    19f2:	f7          	im -9
    19f3:	05          	add
    19f4:	57          	storesp 28
    19f5:	82          	im 2
    19f6:	d4          	im -44
    19f7:	74          	loadsp 16
    19f8:	27          	ulessthanorequal
    19f9:	91          	im 17
    19fa:	38          	neqbranch
    19fb:	77          	loadsp 28
    19fc:	92          	im 18
    19fd:	2a          	lshiftright
    19fe:	80          	im 0
    19ff:	fc          	im -4
    1a00:	05          	add
    1a01:	57          	storesp 28
    1a02:	8a          	im 10
    1a03:	d4          	im -44
    1a04:	74          	loadsp 16
    1a05:	27          	ulessthanorequal
    1a06:	84          	im 4
    1a07:	38          	neqbranch
    1a08:	80          	im 0
    1a09:	fe          	im -2
    1a0a:	57          	storesp 28

00001a0b <.L12>:
    1a0b:	76          	loadsp 24
    1a0c:	10          	addsp 0
    1a0d:	10          	addsp 0
    1a0e:	10          	addsp 0
    1a0f:	80          	im 0
    1a10:	d7          	im -41
    1a11:	a0          	im 32
    1a12:	05          	add

00001a13 <.LM21>:
    1a13:	8c          	im 12
    1a14:	11          	addsp 4
    1a15:	08          	load
    1a16:	56          	storesp 24
    1a17:	53          	storesp 12
    1a18:	74          	loadsp 16
    1a19:	73          	loadsp 12
    1a1a:	2e          	eq
    1a1b:	a3          	im 35
    1a1c:	38          	neqbranch

00001a1d <.L149>:
    1a1d:	84          	im 4
    1a1e:	15          	addsp 20
    1a1f:	08          	load
    1a20:	fc          	im -4
    1a21:	06          	and

00001a22 <.LM23>:
    1a22:	70          	loadsp 0
    1a23:	79          	loadsp 36
    1a24:	31          	sub
    1a25:	55          	storesp 20
    1a26:	56          	storesp 24

00001a27 <.LM24>:
    1a27:	73          	loadsp 12
    1a28:	8f          	im 15
    1a29:	24          	lessthan
    1a2a:	88          	im 8
    1a2b:	e4          	im -28
    1a2c:	38          	neqbranch

00001a2d <.LM25>:
    1a2d:	73          	loadsp 12
    1a2e:	80          	im 0
    1a2f:	25          	lessthanorequal
    1a30:	88          	im 8
    1a31:	e6          	im -26
    1a32:	38          	neqbranch

00001a33 <.LM26>:
    1a33:	8c          	im 12
    1a34:	15          	addsp 20
    1a35:	08          	load
    1a36:	55          	storesp 20
    1a37:	74          	loadsp 16
    1a38:	73          	loadsp 12
    1a39:	2e          	eq
    1a3a:	09          	not
    1a3b:	81          	im 1
    1a3c:	06          	and
    1a3d:	df          	im -33
    1a3e:	38          	neqbranch

00001a3f <.L24>:
    1a3f:	81          	im 1
    1a40:	17          	addsp 28
    1a41:	59          	storesp 36

00001a42 <.L10>:
    1a42:	80          	im 0
    1a43:	d7          	im -41
    1a44:	b0          	im 48
    1a45:	08          	load
    1a46:	56          	storesp 24
    1a47:	75          	loadsp 20
    1a48:	80          	im 0
    1a49:	d7          	im -41
    1a4a:	a8          	im 40
    1a4b:	2e          	eq
    1a4c:	82          	im 2
    1a4d:	cc          	im -52
    1a4e:	38          	neqbranch

00001a4f <.LM29>:
    1a4f:	84          	im 4
    1a50:	16          	addsp 24
    1a51:	08          	load
    1a52:	fc          	im -4
    1a53:	06          	and

00001a54 <.LM30>:
    1a54:	70          	loadsp 0
    1a55:	79          	loadsp 36
    1a56:	31          	sub
    1a57:	55          	storesp 20
    1a58:	55          	storesp 20

00001a59 <.LM31>:
    1a59:	73          	loadsp 12
    1a5a:	8f          	im 15
    1a5b:	24          	lessthan
    1a5c:	bb          	im 59
    1a5d:	38          	neqbranch

00001a5e <.LM32>:
    1a5e:	80          	im 0
    1a5f:	d7          	im -41
    1a60:	a8          	im 40
    1a61:	0b          	nop
    1a62:	80          	im 0
    1a63:	d7          	im -41
    1a64:	b4          	im 52
    1a65:	0c          	store
    1a66:	80          	im 0
    1a67:	d7          	im -41
    1a68:	a8          	im 40
    1a69:	0b          	nop
    1a6a:	80          	im 0
    1a6b:	d7          	im -41
    1a6c:	b0          	im 48
    1a6d:	0c          	store

00001a6e <.LM33>:
    1a6e:	80          	im 0
    1a6f:	74          	loadsp 16
    1a70:	24          	lessthan
    1a71:	80          	im 0
    1a72:	db          	im -37
    1a73:	38          	neqbranch

00001a74 <.LM34>:
    1a74:	74          	loadsp 16
    1a75:	16          	addsp 24
    1a76:	84          	im 4
    1a77:	11          	addsp 4
    1a78:	08          	load
    1a79:	81          	im 1
    1a7a:	07          	or
    1a7b:	84          	im 4
    1a7c:	12          	addsp 8
    1a7d:	0c          	store
    1a7e:	53          	storesp 12
    1a7f:	fe          	im -2
    1a80:	b0          	im 48
    1a81:	39          	poppcrel

00001a82 <.L148>:
    1a82:	88          	im 8
    1a83:	16          	addsp 24

00001a84 <.LM36>:
    1a84:	8c          	im 12
    1a85:	11          	addsp 4
    1a86:	08          	load
    1a87:	57          	storesp 28
    1a88:	59          	storesp 36

00001a89 <.LM37>:
    1a89:	75          	loadsp 20
    1a8a:	79          	loadsp 36
    1a8b:	2e          	eq
    1a8c:	09          	not
    1a8d:	81          	im 1
    1a8e:	06          	and
    1a8f:	fe          	im -2
    1a90:	82          	im 2
    1a91:	38          	neqbranch

00001a92 <.LM38>:
    1a92:	82          	im 2
    1a93:	14          	addsp 16
    1a94:	59          	storesp 36
    1a95:	ff          	im -1
    1a96:	ab          	im 43
    1a97:	39          	poppcrel

00001a98 <.L150>:
    1a98:	77          	loadsp 28
    1a99:	16          	addsp 24

00001a9a <.LM40>:
    1a9a:	78          	loadsp 32
    1a9b:	81          	im 1
    1a9c:	07          	or
    1a9d:	84          	im 4
    1a9e:	18          	addsp 32
    1a9f:	0c          	store

00001aa0 <.LM41>:
    1aa0:	70          	loadsp 0
    1aa1:	80          	im 0
    1aa2:	d7          	im -41
    1aa3:	b4          	im 52
    1aa4:	0c          	store
    1aa5:	70          	loadsp 0
    1aa6:	80          	im 0
    1aa7:	d7          	im -41
    1aa8:	b0          	im 48
    1aa9:	0c          	store
    1aaa:	80          	im 0
    1aab:	d7          	im -41
    1aac:	a8          	im 40
    1aad:	0b          	nop
    1aae:	8c          	im 12
    1aaf:	12          	addsp 8
    1ab0:	0c          	store
    1ab1:	8c          	im 12
    1ab2:	11          	addsp 4
    1ab3:	08          	load
    1ab4:	88          	im 8
    1ab5:	12          	addsp 8
    1ab6:	0c          	store

00001ab7 <.LM42>:
    1ab7:	74          	loadsp 16
    1ab8:	81          	im 1
    1ab9:	07          	or
    1aba:	84          	im 4
    1abb:	12          	addsp 8
    1abc:	0c          	store

00001abd <.LM43>:
    1abd:	74          	loadsp 16
    1abe:	05          	add
    1abf:	74          	loadsp 16
    1ac0:	71          	loadsp 4
    1ac1:	0c          	store
    1ac2:	5b          	storesp 44

00001ac3 <.LM44>:
    1ac3:	7c          	loadsp 48
    1ac4:	51          	storesp 4
    1ac5:	8b          	im 11
    1ac6:	d6          	im -42
    1ac7:	3f          	callpcrel

00001ac8 <.LM45>:
    1ac8:	88          	im 8
    1ac9:	16          	addsp 24
    1aca:	54          	storesp 16
    1acb:	fd          	im -3
    1acc:	ec          	im -20
    1acd:	39          	poppcrel

00001ace <.L32>:
    1ace:	83          	im 3
    1acf:	ff          	im -1
    1ad0:	75          	loadsp 20
    1ad1:	27          	ulessthanorequal
    1ad2:	83          	im 3
    1ad3:	91          	im 17
    1ad4:	38          	neqbranch
    1ad5:	74          	loadsp 16
    1ad6:	89          	im 9
    1ad7:	2a          	lshiftright
    1ad8:	75          	loadsp 20
    1ad9:	83          	im 3
    1ada:	2a          	lshiftright
    1adb:	54          	storesp 16
    1adc:	54          	storesp 16
    1add:	73          	loadsp 12
    1ade:	80          	im 0
    1adf:	2e          	eq
    1ae0:	bf          	im 63
    1ae1:	38          	neqbranch
    1ae2:	74          	loadsp 16
    1ae3:	86          	im 6
    1ae4:	2a          	lshiftright
    1ae5:	b8          	im 56
    1ae6:	05          	add
    1ae7:	53          	storesp 12
    1ae8:	84          	im 4
    1ae9:	74          	loadsp 16
    1aea:	27          	ulessthanorequal
    1aeb:	b4          	im 52
    1aec:	38          	neqbranch
    1aed:	80          	im 0
    1aee:	db          	im -37
    1aef:	14          	addsp 16
    1af0:	53          	storesp 12
    1af1:	94          	im 20
    1af2:	74          	loadsp 16
    1af3:	27          	ulessthanorequal
    1af4:	ab          	im 43
    1af5:	38          	neqbranch
    1af6:	74          	loadsp 16
    1af7:	8c          	im 12
    1af8:	2a          	lshiftright
    1af9:	80          	im 0
    1afa:	ee          	im -18
    1afb:	05          	add
    1afc:	53          	storesp 12
    1afd:	80          	im 0
    1afe:	d4          	im -44
    1aff:	74          	loadsp 16
    1b00:	27          	ulessthanorequal
    1b01:	9e          	im 30
    1b02:	38          	neqbranch
    1b03:	74          	loadsp 16
    1b04:	8f          	im 15
    1b05:	2a          	lshiftright
    1b06:	80          	im 0
    1b07:	f7          	im -9
    1b08:	05          	add
    1b09:	53          	storesp 12
    1b0a:	82          	im 2
    1b0b:	d4          	im -44
    1b0c:	74          	loadsp 16
    1b0d:	27          	ulessthanorequal
    1b0e:	91          	im 17
    1b0f:	38          	neqbranch
    1b10:	74          	loadsp 16
    1b11:	92          	im 18
    1b12:	2a          	lshiftright
    1b13:	80          	im 0
    1b14:	fc          	im -4
    1b15:	05          	add
    1b16:	53          	storesp 12
    1b17:	8a          	im 10
    1b18:	d4          	im -44
    1b19:	74          	loadsp 16
    1b1a:	27          	ulessthanorequal
    1b1b:	84          	im 4
    1b1c:	38          	neqbranch
    1b1d:	80          	im 0
    1b1e:	fe          	im -2
    1b1f:	53          	storesp 12

00001b20 <.L37>:
    1b20:	72          	loadsp 8
    1b21:	10          	addsp 0
    1b22:	10          	addsp 0
    1b23:	10          	addsp 0
    1b24:	80          	im 0
    1b25:	d7          	im -41
    1b26:	a0          	im 32
    1b27:	05          	add
    1b28:	88          	im 8
    1b29:	11          	addsp 4
    1b2a:	08          	load
    1b2b:	55          	storesp 20
    1b2c:	57          	storesp 28
    1b2d:	73          	loadsp 12
    1b2e:	77          	loadsp 28
    1b2f:	2e          	eq
    1b30:	86          	im 6
    1b31:	8b          	im 11
    1b32:	38          	neqbranch

00001b33 <.L111>:
    1b33:	84          	im 4
    1b34:	14          	addsp 16
    1b35:	08          	load
    1b36:	fc          	im -4
    1b37:	06          	and
    1b38:	5b          	storesp 44
    1b39:	74          	loadsp 16
    1b3a:	7b          	loadsp 44
    1b3b:	27          	ulessthanorequal
    1b3c:	8d          	im 13
    1b3d:	38          	neqbranch
    1b3e:	88          	im 8
    1b3f:	14          	addsp 16
    1b40:	08          	load
    1b41:	54          	storesp 16
    1b42:	73          	loadsp 12
    1b43:	77          	loadsp 28
    1b44:	2e          	eq
    1b45:	09          	not
    1b46:	81          	im 1
    1b47:	06          	and
    1b48:	ea          	im -22
    1b49:	38          	neqbranch

00001b4a <.L52>:
    1b4a:	8c          	im 12
    1b4b:	14          	addsp 16
    1b4c:	08          	load
    1b4d:	80          	im 0
    1b4e:	d7          	im -41
    1b4f:	a0          	im 32
    1b50:	0b          	nop
    1b51:	84          	im 4
    1b52:	05          	add
    1b53:	08          	load
    1b54:	71          	loadsp 4
    1b55:	8c          	im 12
    1b56:	19          	addsp 36
    1b57:	0c          	store
    1b58:	75          	loadsp 20
    1b59:	88          	im 8
    1b5a:	19          	addsp 36
    1b5b:	0c          	store
    1b5c:	77          	loadsp 28
    1b5d:	88          	im 8
    1b5e:	13          	addsp 12
    1b5f:	0c          	store
    1b60:	5c          	storesp 48
    1b61:	57          	storesp 28

00001b62 <.L140>:
    1b62:	75          	loadsp 20
    1b63:	8c          	im 12
    1b64:	15          	addsp 20
    1b65:	0c          	store

00001b66 <.L30>:
    1b66:	78          	loadsp 32
    1b67:	53          	storesp 12
    1b68:	80          	im 0
    1b69:	79          	loadsp 36
    1b6a:	24          	lessthan
    1b6b:	83          	im 3
    1b6c:	98          	im 24
    1b6d:	38          	neqbranch

00001b6e <.L55>:
    1b6e:	72          	loadsp 8
    1b6f:	82          	im 2
    1b70:	2c          	ashiftright
    1b71:	81          	im 1
    1b72:	71          	loadsp 4
    1b73:	2b          	ashiftleft
    1b74:	56          	storesp 24
    1b75:	56          	storesp 24
    1b76:	74          	loadsp 16
    1b77:	7b          	loadsp 44
    1b78:	26          	ulessthan
    1b79:	80          	im 0
    1b7a:	ca          	im -54
    1b7b:	38          	neqbranch

00001b7c <.LM48>:
    1b7c:	7a          	loadsp 40
    1b7d:	75          	loadsp 20
    1b7e:	06          	and
    1b7f:	57          	storesp 28
    1b80:	76          	loadsp 24
    1b81:	82          	im 2
    1b82:	a3          	im 35
    1b83:	38          	neqbranch

00001b84 <.LM49>:
    1b84:	78          	loadsp 32
    1b85:	fc          	im -4
    1b86:	06          	and
    1b87:	84          	im 4
    1b88:	05          	add
    1b89:	59          	storesp 36

00001b8a <.L141>:
    1b8a:	74          	loadsp 16
    1b8b:	10          	addsp 0

00001b8c <.LM51>:
    1b8c:	70          	loadsp 0
    1b8d:	7c          	loadsp 48
    1b8e:	06          	and
    1b8f:	55          	storesp 20
    1b90:	55          	storesp 20
    1b91:	73          	loadsp 12
    1b92:	82          	im 2
    1b93:	92          	im 18
    1b94:	38          	neqbranch

00001b95 <.LM52>:
    1b95:	84          	im 4
    1b96:	19          	addsp 36
    1b97:	59          	storesp 36
    1b98:	f1          	im -15
    1b99:	39          	poppcrel

00001b9a <.L112>:
    1b9a:	80          	im 0
    1b9b:	d7          	im -41
    1b9c:	a0          	im 32
    1b9d:	0b          	nop
    1b9e:	84          	im 4
    1b9f:	05          	add
    1ba0:	08          	load

00001ba1 <.LM53>:
    1ba1:	79          	loadsp 36
    1ba2:	54          	storesp 16
    1ba3:	5b          	storesp 44
    1ba4:	78          	loadsp 32
    1ba5:	80          	im 0
    1ba6:	25          	lessthanorequal
    1ba7:	c6          	im -58
    1ba8:	38          	neqbranch
    1ba9:	82          	im 2
    1baa:	da          	im -38
    1bab:	39          	poppcrel

00001bac <.L120>:
    1bac:	74          	loadsp 16
    1bad:	09          	not
    1bae:	7b          	loadsp 44
    1baf:	06          	and
    1bb0:	70          	loadsp 0
    1bb1:	80          	im 0
    1bb2:	d7          	im -41
    1bb3:	a0          	im 32
    1bb4:	0b          	nop
    1bb5:	84          	im 4
    1bb6:	05          	add
    1bb7:	0c          	store
    1bb8:	5b          	storesp 44

00001bb9 <.L73>:
    1bb9:	74          	loadsp 16
    1bba:	10          	addsp 0
    1bbb:	55          	storesp 20
    1bbc:	74          	loadsp 16
    1bbd:	7b          	loadsp 44
    1bbe:	26          	ulessthan
    1bbf:	85          	im 5
    1bc0:	38          	neqbranch
    1bc1:	74          	loadsp 16
    1bc2:	85          	im 5
    1bc3:	bc          	im 60
    1bc4:	38          	neqbranch

00001bc5 <.L54>:
    1bc5:	80          	im 0
    1bc6:	d7          	im -41
    1bc7:	a0          	im 32
    1bc8:	0b          	nop
    1bc9:	88          	im 8
    1bca:	05          	add
    1bcb:	08          	load
    1bcc:	70          	loadsp 0
    1bcd:	84          	im 4
    1bce:	12          	addsp 8
    1bcf:	08          	load
    1bd0:	fc          	im -4
    1bd1:	06          	and
    1bd2:	70          	loadsp 0
    1bd3:	7b          	loadsp 44
    1bd4:	31          	sub

00001bd5 <.LM57>:
    1bd5:	7b          	loadsp 44
    1bd6:	72          	loadsp 8
    1bd7:	26          	ulessthan
    1bd8:	8f          	im 15
    1bd9:	72          	loadsp 8
    1bda:	25          	lessthanorequal
    1bdb:	07          	or
    1bdc:	5d          	storesp 52
    1bdd:	57          	storesp 28
    1bde:	5c          	storesp 48
    1bdf:	5c          	storesp 48
    1be0:	55          	storesp 20
    1be1:	78          	loadsp 32
    1be2:	80          	im 0
    1be3:	2e          	eq
    1be4:	80          	im 0
    1be5:	d9          	im -39
    1be6:	38          	neqbranch

00001be7 <.LBB2>:
    1be7:	79          	loadsp 36
    1be8:	15          	addsp 20

00001be9 <.LM59>:
    1be9:	80          	im 0
    1bea:	d7          	im -41
    1beb:	98          	im 24
    1bec:	08          	load
    1bed:	19          	addsp 36
    1bee:	90          	im 16
    1bef:	11          	addsp 4
    1bf0:	59          	storesp 36
    1bf1:	54          	storesp 16
    1bf2:	56          	storesp 24

00001bf3 <.LM60>:
    1bf3:	80          	im 0
    1bf4:	d7          	im -41
    1bf5:	94          	im 20
    1bf6:	08          	load
    1bf7:	ff          	im -1
    1bf8:	2e          	eq
    1bf9:	88          	im 8
    1bfa:	38          	neqbranch

00001bfb <.LM61>:
    1bfb:	a0          	im 32
    1bfc:	8f          	im 15
    1bfd:	13          	addsp 12
    1bfe:	e0          	im -32
    1bff:	80          	im 0
    1c00:	06          	and
    1c01:	57          	storesp 28

00001c02 <.L84>:
    1c02:	76          	loadsp 24
    1c03:	52          	storesp 8
    1c04:	7c          	loadsp 48
    1c05:	51          	storesp 4
    1c06:	89          	im 9
    1c07:	96          	im 22
    1c08:	3f          	callpcrel
    1c09:	80          	im 0
    1c0a:	08          	load
    1c0b:	54          	storesp 16

00001c0c <.LM63>:
    1c0c:	80          	im 0
    1c0d:	08          	load
    1c0e:	ff          	im -1
    1c0f:	2e          	eq
    1c10:	90          	im 16
    1c11:	38          	neqbranch
    1c12:	80          	im 0
    1c13:	08          	load
    1c14:	76          	loadsp 24
    1c15:	27          	ulessthanorequal
    1c16:	82          	im 2
    1c17:	a7          	im 39
    1c18:	38          	neqbranch
    1c19:	74          	loadsp 16
    1c1a:	80          	im 0
    1c1b:	d7          	im -41
    1c1c:	a0          	im 32
    1c1d:	2e          	eq
    1c1e:	82          	im 2
    1c1f:	9f          	im 31
    1c20:	38          	neqbranch

00001c21 <.L114>:
    1c21:	80          	im 0
    1c22:	d7          	im -41
    1c23:	a0          	im 32
    1c24:	0b          	nop
    1c25:	88          	im 8
    1c26:	05          	add
    1c27:	08          	load
    1c28:	55          	storesp 20

00001c29 <.L87>:
    1c29:	84          	im 4
    1c2a:	15          	addsp 20
    1c2b:	08          	load
    1c2c:	fc          	im -4
    1c2d:	06          	and
    1c2e:	70          	loadsp 0
    1c2f:	79          	loadsp 36
    1c30:	31          	sub

00001c31 <.LM65>:
    1c31:	79          	loadsp 36
    1c32:	72          	loadsp 8
    1c33:	26          	ulessthan
    1c34:	8f          	im 15
    1c35:	72          	loadsp 8
    1c36:	25          	lessthanorequal
    1c37:	07          	or
    1c38:	5d          	storesp 52
    1c39:	55          	storesp 20
    1c3a:	5a          	storesp 40
    1c3b:	7a          	loadsp 40
    1c3c:	83          	im 3
    1c3d:	f2          	im -14
    1c3e:	38          	neqbranch

00001c3f <.L81>:
    1c3f:	77          	loadsp 28
    1c40:	81          	im 1
    1c41:	07          	or
    1c42:	84          	im 4
    1c43:	16          	addsp 24
    1c44:	0c          	store

00001c45 <.LM67>:
    1c45:	77          	loadsp 28
    1c46:	15          	addsp 20
    1c47:	70          	loadsp 0
    1c48:	80          	im 0
    1c49:	d7          	im -41
    1c4a:	a0          	im 32
    1c4b:	0b          	nop
    1c4c:	88          	im 8
    1c4d:	05          	add
    1c4e:	0c          	store

00001c4f <.LM68>:
    1c4f:	74          	loadsp 16
    1c50:	81          	im 1
    1c51:	07          	or
    1c52:	84          	im 4
    1c53:	12          	addsp 8
    1c54:	0c          	store
    1c55:	56          	storesp 24

00001c56 <.LM69>:
    1c56:	7c          	loadsp 48
    1c57:	51          	storesp 4
    1c58:	88          	im 8
    1c59:	c3          	im -61
    1c5a:	3f          	callpcrel

00001c5b <.LM70>:
    1c5b:	88          	im 8
    1c5c:	15          	addsp 20
    1c5d:	54          	storesp 16

00001c5e <.L163>:
    1c5e:	73          	loadsp 12
    1c5f:	80          	im 0
    1c60:	0c          	store
    1c61:	8e          	im 14
    1c62:	3d          	pushspadd
    1c63:	0d          	popsp
    1c64:	04          	poppc

00001c65 <.L151>:
    1c65:	74          	loadsp 16
    1c66:	83          	im 3
    1c67:	2a          	lshiftright
    1c68:	70          	loadsp 0
    1c69:	54          	storesp 16
    1c6a:	54          	storesp 16
    1c6b:	80          	im 0
    1c6c:	74          	loadsp 16
    1c6d:	24          	lessthan
    1c6e:	81          	im 1
    1c6f:	9b          	im 27
    1c70:	38          	neqbranch
    1c71:	72          	loadsp 8
    1c72:	82          	im 2
    1c73:	2c          	ashiftright
    1c74:	81          	im 1
    1c75:	71          	loadsp 4
    1c76:	2b          	ashiftleft
    1c77:	80          	im 0
    1c78:	d7          	im -41
    1c79:	a4          	im 36
    1c7a:	08          	load
    1c7b:	07          	or
    1c7c:	70          	loadsp 0
    1c7d:	80          	im 0
    1c7e:	d7          	im -41
    1c7f:	a0          	im 32
    1c80:	0b          	nop
    1c81:	84          	im 4
    1c82:	05          	add
    1c83:	0c          	store
    1c84:	75          	loadsp 20
    1c85:	10          	addsp 0
    1c86:	10          	addsp 0
    1c87:	10          	addsp 0
    1c88:	80          	im 0
    1c89:	d7          	im -41
    1c8a:	a0          	im 32
    1c8b:	05          	add
    1c8c:	88          	im 8
    1c8d:	11          	addsp 4
    1c8e:	08          	load
    1c8f:	71          	loadsp 4
    1c90:	8c          	im 12
    1c91:	1b          	addsp 44
    1c92:	0c          	store
    1c93:	70          	loadsp 0
    1c94:	88          	im 8
    1c95:	1b          	addsp 44
    1c96:	0c          	store
    1c97:	79          	loadsp 36
    1c98:	88          	im 8
    1c99:	13          	addsp 12
    1c9a:	0c          	store
    1c9b:	57          	storesp 28
    1c9c:	55          	storesp 20
    1c9d:	5c          	storesp 48
    1c9e:	55          	storesp 20

00001c9f <.L157>:
    1c9f:	75          	loadsp 20
    1ca0:	8c          	im 12
    1ca1:	15          	addsp 20
    1ca2:	0c          	store
    1ca3:	fd          	im -3
    1ca4:	c1          	im -63
    1ca5:	39          	poppcrel

00001ca6 <.L138>:
    1ca6:	78          	loadsp 32

00001ca7 <.LM74>:
    1ca7:	79          	loadsp 36
    1ca8:	10          	addsp 0
    1ca9:	10          	addsp 0
    1caa:	10          	addsp 0
    1cab:	80          	im 0
    1cac:	d7          	im -41
    1cad:	a0          	im 32
    1cae:	05          	add
    1caf:	70          	loadsp 0
    1cb0:	56          	storesp 24
    1cb1:	5b          	storesp 44
    1cb2:	5c          	storesp 48

00001cb3 <.L62>:
    1cb3:	8c          	im 12
    1cb4:	14          	addsp 16
    1cb5:	08          	load
    1cb6:	56          	storesp 24
    1cb7:	75          	loadsp 20
    1cb8:	74          	loadsp 16
    1cb9:	2e          	eq
    1cba:	a3          	im 35
    1cbb:	38          	neqbranch

00001cbc <.L156>:
    1cbc:	84          	im 4
    1cbd:	16          	addsp 24
    1cbe:	08          	load
    1cbf:	fc          	im -4
    1cc0:	06          	and

00001cc1 <.LM77>:
    1cc1:	70          	loadsp 0
    1cc2:	79          	loadsp 36
    1cc3:	31          	sub
    1cc4:	58          	storesp 32
    1cc5:	53          	storesp 12

00001cc6 <.LM78>:
    1cc6:	76          	loadsp 24
    1cc7:	8f          	im 15
    1cc8:	24          	lessthan
    1cc9:	83          	im 3
    1cca:	f1          	im -15
    1ccb:	38          	neqbranch

00001ccc <.LM79>:
    1ccc:	76          	loadsp 24
    1ccd:	80          	im 0
    1cce:	25          	lessthanorequal
    1ccf:	84          	im 4
    1cd0:	af          	im 47
    1cd1:	38          	neqbranch

00001cd2 <.LM80>:
    1cd2:	8c          	im 12
    1cd3:	16          	addsp 24
    1cd4:	08          	load
    1cd5:	56          	storesp 24
    1cd6:	75          	loadsp 20
    1cd7:	74          	loadsp 16
    1cd8:	2e          	eq
    1cd9:	09          	not
    1cda:	81          	im 1
    1cdb:	06          	and
    1cdc:	df          	im -33
    1cdd:	38          	neqbranch

00001cde <.L108>:
    1cde:	88          	im 8
    1cdf:	14          	addsp 16

00001ce0 <.LM82>:
    1ce0:	81          	im 1
    1ce1:	1a          	addsp 40
    1ce2:	70          	loadsp 0
    1ce3:	83          	im 3
    1ce4:	06          	and
    1ce5:	55          	storesp 20
    1ce6:	5a          	storesp 40
    1ce7:	54          	storesp 16
    1ce8:	72          	loadsp 8
    1ce9:	c9          	im -55
    1cea:	38          	neqbranch

00001ceb <.L128>:
    1ceb:	7b          	loadsp 44
    1cec:	83          	im 3
    1ced:	06          	and
    1cee:	56          	storesp 24
    1cef:	75          	loadsp 20
    1cf0:	80          	im 0
    1cf1:	2e          	eq
    1cf2:	fd          	im -3
    1cf3:	b8          	im 56
    1cf4:	38          	neqbranch

00001cf5 <.LM84>:
    1cf5:	ff          	im -1
    1cf6:	1c          	addsp 48

00001cf7 <.LM85>:
    1cf7:	f8          	im -8
    1cf8:	1b          	addsp 44
    1cf9:	5b          	storesp 44
    1cfa:	5c          	storesp 48

00001cfb <.LM86>:
    1cfb:	88          	im 8
    1cfc:	1a          	addsp 40
    1cfd:	08          	load
    1cfe:	7a          	loadsp 40
    1cff:	2e          	eq
    1d00:	ea          	im -22
    1d01:	38          	neqbranch
    1d02:	fd          	im -3
    1d03:	b5          	im 53
    1d04:	39          	poppcrel

00001d05 <.L153>:
    1d05:	83          	im 3
    1d06:	19          	addsp 36
    1d07:	53          	storesp 12
    1d08:	fc          	im -4
    1d09:	e4          	im -28
    1d0a:	39          	poppcrel

00001d0b <.L155>:
    1d0b:	83          	im 3
    1d0c:	14          	addsp 16
    1d0d:	70          	loadsp 0
    1d0e:	82          	im 2
    1d0f:	2c          	ashiftright
    1d10:	81          	im 1
    1d11:	71          	loadsp 4
    1d12:	2b          	ashiftleft
    1d13:	80          	im 0
    1d14:	d7          	im -41
    1d15:	a4          	im 36
    1d16:	08          	load
    1d17:	07          	or
    1d18:	70          	loadsp 0
    1d19:	80          	im 0
    1d1a:	d7          	im -41
    1d1b:	a0          	im 32
    1d1c:	0b          	nop
    1d1d:	84          	im 4
    1d1e:	05          	add
    1d1f:	0c          	store
    1d20:	76          	loadsp 24
    1d21:	10          	addsp 0
    1d22:	10          	addsp 0
    1d23:	10          	addsp 0
    1d24:	80          	im 0
    1d25:	d7          	im -41
    1d26:	a0          	im 32
    1d27:	05          	add
    1d28:	88          	im 8
    1d29:	11          	addsp 4
    1d2a:	08          	load
    1d2b:	71          	loadsp 4
    1d2c:	8c          	im 12
    1d2d:	1c          	addsp 48
    1d2e:	0c          	store
    1d2f:	70          	loadsp 0
    1d30:	88          	im 8
    1d31:	1c          	addsp 48
    1d32:	0c          	store
    1d33:	7a          	loadsp 40
    1d34:	88          	im 8
    1d35:	13          	addsp 12
    1d36:	0c          	store
    1d37:	58          	storesp 32
    1d38:	53          	storesp 12
    1d39:	5d          	storesp 52
    1d3a:	56          	storesp 24
    1d3b:	53          	storesp 12
    1d3c:	fe          	im -2
    1d3d:	e1          	im -31
    1d3e:	39          	poppcrel

00001d3f <.L85>:
    1d3f:	80          	im 0
    1d40:	d6          	im -42
    1d41:	e4          	im -28
    1d42:	08          	load
    1d43:	17          	addsp 28
    1d44:	59          	storesp 36

00001d45 <.LM90>:
    1d45:	80          	im 0
    1d46:	08          	load
    1d47:	76          	loadsp 24
    1d48:	2e          	eq
    1d49:	81          	im 1
    1d4a:	8b          	im 11
    1d4b:	38          	neqbranch

00001d4c <.L88>:
    1d4c:	80          	im 0
    1d4d:	d7          	im -41
    1d4e:	94          	im 20
    1d4f:	08          	load
    1d50:	ff          	im -1
    1d51:	2e          	eq
    1d52:	84          	im 4
    1d53:	8e          	im 14
    1d54:	38          	neqbranch

00001d55 <.LM92>:
    1d55:	73          	loadsp 12
    1d56:	76          	loadsp 24
    1d57:	31          	sub
    1d58:	19          	addsp 36
    1d59:	80          	im 0
    1d5a:	d6          	im -42
    1d5b:	e4          	im -28
    1d5c:	0c          	store

00001d5d <.L91>:
    1d5d:	73          	loadsp 12
    1d5e:	87          	im 7
    1d5f:	06          	and

00001d60 <.LM94>:
    1d60:	70          	loadsp 0
    1d61:	56          	storesp 24
    1d62:	53          	storesp 12

00001d63 <.LM95>:
    1d63:	72          	loadsp 8
    1d64:	80          	im 0
    1d65:	2e          	eq
    1d66:	88          	im 8
    1d67:	38          	neqbranch

00001d68 <.LM96>:
    1d68:	88          	im 8
    1d69:	73          	loadsp 12
    1d6a:	31          	sub

00001d6b <.LM97>:
    1d6b:	70          	loadsp 0
    1d6c:	15          	addsp 20
    1d6d:	55          	storesp 20
    1d6e:	55          	storesp 20

00001d6f <.L93>:
    1d6f:	76          	loadsp 24
    1d70:	14          	addsp 16
    1d71:	9f          	im 31
    1d72:	ff          	im -1
    1d73:	06          	and
    1d74:	a0          	im 32
    1d75:	80          	im 0
    1d76:	71          	loadsp 4
    1d77:	31          	sub
    1d78:	16          	addsp 24

00001d79 <.LM99>:
    1d79:	70          	loadsp 0
    1d7a:	54          	storesp 16
    1d7b:	7e          	loadsp 56
    1d7c:	53          	storesp 12
    1d7d:	51          	storesp 4
    1d7e:	53          	storesp 12
    1d7f:	86          	im 6
    1d80:	9d          	im 29
    1d81:	3f          	callpcrel
    1d82:	80          	im 0
    1d83:	08          	load
    1d84:	56          	storesp 24

00001d85 <.LM100>:
    1d85:	80          	im 0
    1d86:	08          	load
    1d87:	ff          	im -1
    1d88:	2e          	eq
    1d89:	81          	im 1
    1d8a:	9e          	im 30
    1d8b:	38          	neqbranch

00001d8c <.L94>:
    1d8c:	80          	im 0
    1d8d:	d6          	im -42
    1d8e:	e4          	im -28
    1d8f:	08          	load
    1d90:	13          	addsp 12
    1d91:	70          	loadsp 0
    1d92:	80          	im 0
    1d93:	d6          	im -42
    1d94:	e4          	im -28
    1d95:	0c          	store

00001d96 <.LM102>:
    1d96:	74          	loadsp 16
    1d97:	75          	loadsp 20
    1d98:	80          	im 0
    1d99:	d7          	im -41
    1d9a:	a0          	im 32
    1d9b:	0b          	nop
    1d9c:	88          	im 8
    1d9d:	05          	add
    1d9e:	0c          	store

00001d9f <.LM103>:
    1d9f:	77          	loadsp 28
    1da0:	76          	loadsp 24
    1da1:	31          	sub
    1da2:	15          	addsp 20

00001da3 <.LM104>:
    1da3:	81          	im 1
    1da4:	07          	or
    1da5:	55          	storesp 20
    1da6:	56          	storesp 24
    1da7:	59          	storesp 36

00001da8 <.LM105>:
    1da8:	7a          	loadsp 40
    1da9:	80          	im 0
    1daa:	d7          	im -41
    1dab:	a0          	im 32
    1dac:	2e          	eq
    1dad:	83          	im 3
    1dae:	c0          	im -64
    1daf:	38          	neqbranch

00001db0 <.LM106>:
    1db0:	79          	loadsp 36
    1db1:	8f          	im 15
    1db2:	26          	ulessthan
    1db3:	82          	im 2
    1db4:	ef          	im -17
    1db5:	38          	neqbranch

00001db6 <.LM107>:
    1db6:	81          	im 1
    1db7:	0b          	nop
    1db8:	84          	im 4
    1db9:	15          	addsp 20
    1dba:	0c          	store

00001dbb <.LM108>:
    1dbb:	84          	im 4
    1dbc:	15          	addsp 20
    1dbd:	08          	load
    1dbe:	fc          	im -4
    1dbf:	06          	and
    1dc0:	70          	loadsp 0
    1dc1:	79          	loadsp 36
    1dc2:	31          	sub

00001dc3 <.LM109>:
    1dc3:	79          	loadsp 36
    1dc4:	72          	loadsp 8
    1dc5:	26          	ulessthan
    1dc6:	8f          	im 15
    1dc7:	72          	loadsp 8
    1dc8:	25          	lessthanorequal
    1dc9:	07          	or
    1dca:	5d          	storesp 52
    1dcb:	55          	storesp 20
    1dcc:	5a          	storesp 40
    1dcd:	7a          	loadsp 40
    1dce:	80          	im 0
    1dcf:	2e          	eq
    1dd0:	fc          	im -4
    1dd1:	ed          	im -19
    1dd2:	38          	neqbranch
    1dd3:	80          	im 0
    1dd4:	db          	im -37
    1dd5:	39          	poppcrel

00001dd6 <.L158>:
    1dd6:	80          	im 0
    1dd7:	08          	load
    1dd8:	9f          	im 31
    1dd9:	ff          	im -1
    1dda:	06          	and
    1ddb:	55          	storesp 20
    1ddc:	74          	loadsp 16
    1ddd:	fe          	im -2
    1dde:	ed          	im -19
    1ddf:	38          	neqbranch
    1de0:	78          	loadsp 32
    1de1:	80          	im 0
    1de2:	d6          	im -42
    1de3:	e4          	im -28
    1de4:	0c          	store

00001de5 <.LM111>:
    1de5:	80          	im 0
    1de6:	d7          	im -41
    1de7:	a0          	im 32
    1de8:	0b          	nop
    1de9:	88          	im 8
    1dea:	05          	add
    1deb:	08          	load
    1dec:	7a          	loadsp 40
    1ded:	18          	addsp 32
    1dee:	81          	im 1
    1def:	07          	or
    1df0:	84          	im 4
    1df1:	12          	addsp 8
    1df2:	0c          	store
    1df3:	55          	storesp 20

00001df4 <.L89>:
    1df4:	80          	im 0
    1df5:	d7          	im -41
    1df6:	90          	im 16
    1df7:	08          	load
    1df8:	79          	loadsp 36
    1df9:	27          	ulessthanorequal
    1dfa:	86          	im 6
    1dfb:	38          	neqbranch

00001dfc <.LM113>:
    1dfc:	78          	loadsp 32
    1dfd:	80          	im 0
    1dfe:	d7          	im -41
    1dff:	90          	im 16
    1e00:	0c          	store

00001e01 <.L98>:
    1e01:	80          	im 0
    1e02:	d7          	im -41
    1e03:	8c          	im 12
    1e04:	08          	load
    1e05:	79          	loadsp 36
    1e06:	27          	ulessthanorequal
    1e07:	fc          	im -4
    1e08:	a0          	im 32
    1e09:	38          	neqbranch

00001e0a <.LM115>:
    1e0a:	78          	loadsp 32
    1e0b:	80          	im 0
    1e0c:	d7          	im -41
    1e0d:	8c          	im 12
    1e0e:	0c          	store

00001e0f <.LM116>:
    1e0f:	84          	im 4
    1e10:	15          	addsp 20
    1e11:	08          	load
    1e12:	fc          	im -4
    1e13:	06          	and
    1e14:	70          	loadsp 0
    1e15:	79          	loadsp 36
    1e16:	31          	sub

00001e17 <.LM117>:
    1e17:	79          	loadsp 36
    1e18:	72          	loadsp 8
    1e19:	26          	ulessthan
    1e1a:	8f          	im 15
    1e1b:	72          	loadsp 8
    1e1c:	25          	lessthanorequal
    1e1d:	07          	or
    1e1e:	5d          	storesp 52
    1e1f:	55          	storesp 20
    1e20:	5a          	storesp 40
    1e21:	7a          	loadsp 40
    1e22:	80          	im 0
    1e23:	2e          	eq
    1e24:	fc          	im -4
    1e25:	99          	im 25
    1e26:	38          	neqbranch
    1e27:	88          	im 8
    1e28:	39          	poppcrel

00001e29 <.L160>:
    1e29:	80          	im 0

00001e2a <.LM119>:
    1e2a:	74          	loadsp 16
    1e2b:	57          	storesp 28
    1e2c:	53          	storesp 12
    1e2d:	fe          	im -2
    1e2e:	dd          	im -35
    1e2f:	39          	poppcrel

00001e30 <.L154>:
    1e30:	7c          	loadsp 48
    1e31:	51          	storesp 4
    1e32:	84          	im 4
    1e33:	e9          	im -23
    1e34:	3f          	callpcrel

00001e35 <.LM121>:
    1e35:	80          	im 0

00001e36 <.LM122>:
    1e36:	0b          	nop
    1e37:	80          	im 0
    1e38:	0c          	store
    1e39:	8e          	im 14
    1e3a:	3d          	pushspadd
    1e3b:	0d          	popsp
    1e3c:	04          	poppc

00001e3d <.L152>:
    1e3d:	80          	im 0
    1e3e:	73          	loadsp 12
    1e3f:	24          	lessthan
    1e40:	a5          	im 37
    1e41:	38          	neqbranch
    1e42:	72          	loadsp 8
    1e43:	82          	im 2
    1e44:	2c          	ashiftright
    1e45:	81          	im 1
    1e46:	71          	loadsp 4
    1e47:	2b          	ashiftleft
    1e48:	80          	im 0
    1e49:	d7          	im -41
    1e4a:	a4          	im 36
    1e4b:	08          	load
    1e4c:	07          	or
    1e4d:	70          	loadsp 0
    1e4e:	80          	im 0
    1e4f:	d7          	im -41
    1e50:	a0          	im 32
    1e51:	0b          	nop
    1e52:	84          	im 4
    1e53:	05          	add
    1e54:	0c          	store
    1e55:	5c          	storesp 48
    1e56:	5a          	storesp 40

00001e57 <.L162>:
    1e57:	76          	loadsp 24
    1e58:	8c          	im 12
    1e59:	17          	addsp 28
    1e5a:	0c          	store
    1e5b:	73          	loadsp 12
    1e5c:	88          	im 8
    1e5d:	17          	addsp 28
    1e5e:	0c          	store
    1e5f:	75          	loadsp 20
    1e60:	88          	im 8
    1e61:	18          	addsp 32
    1e62:	0c          	store
    1e63:	f9          	im -7
    1e64:	fd          	im -3
    1e65:	39          	poppcrel

00001e66 <.L161>:
    1e66:	83          	im 3
    1e67:	13          	addsp 12
    1e68:	70          	loadsp 0
    1e69:	82          	im 2
    1e6a:	2c          	ashiftright
    1e6b:	81          	im 1
    1e6c:	71          	loadsp 4
    1e6d:	2b          	ashiftleft
    1e6e:	80          	im 0
    1e6f:	d7          	im -41
    1e70:	a4          	im 36
    1e71:	08          	load
    1e72:	07          	or
    1e73:	70          	loadsp 0
    1e74:	80          	im 0
    1e75:	d7          	im -41
    1e76:	a0          	im 32
    1e77:	0b          	nop
    1e78:	84          	im 4
    1e79:	05          	add
    1e7a:	0c          	store
    1e7b:	5d          	storesp 52
    1e7c:	5b          	storesp 44
    1e7d:	53          	storesp 12
    1e7e:	d8          	im -40
    1e7f:	39          	poppcrel

00001e80 <.L143>:
    1e80:	7a          	loadsp 40
    1e81:	75          	loadsp 20
    1e82:	06          	and
    1e83:	5c          	storesp 48
    1e84:	7b          	loadsp 44
    1e85:	fc          	im -4
    1e86:	9f          	im 31
    1e87:	38          	neqbranch

00001e88 <.LM125>:
    1e88:	84          	im 4
    1e89:	19          	addsp 36

00001e8a <.LM126>:
    1e8a:	75          	loadsp 20
    1e8b:	10          	addsp 0
    1e8c:	56          	storesp 24
    1e8d:	59          	storesp 36
    1e8e:	f1          	im -15
    1e8f:	39          	poppcrel

00001e90 <.L116>:
    1e90:	ff          	im -1
    1e91:	17          	addsp 28

00001e92 <.LM128>:
    1e92:	81          	im 1
    1e93:	05          	add
    1e94:	59          	storesp 36
    1e95:	f7          	im -9
    1e96:	ab          	im 43
    1e97:	39          	poppcrel

00001e98 <.L117>:
    1e98:	8c          	im 12
    1e99:	15          	addsp 20
    1e9a:	08          	load
    1e9b:	88          	im 8
    1e9c:	16          	addsp 24
    1e9d:	08          	load
    1e9e:	71          	loadsp 4
    1e9f:	8c          	im 12
    1ea0:	12          	addsp 8
    1ea1:	0c          	store
    1ea2:	88          	im 8
    1ea3:	12          	addsp 8
    1ea4:	0c          	store
    1ea5:	59          	storesp 36

00001ea6 <.LM130>:
    1ea6:	75          	loadsp 20
    1ea7:	15          	addsp 20
    1ea8:	84          	im 4
    1ea9:	11          	addsp 4
    1eaa:	08          	load
    1eab:	81          	im 1
    1eac:	07          	or
    1ead:	84          	im 4
    1eae:	12          	addsp 8
    1eaf:	0c          	store
    1eb0:	58          	storesp 32

00001eb1 <.LM131>:
    1eb1:	7c          	loadsp 48
    1eb2:	51          	storesp 4
    1eb3:	83          	im 3
    1eb4:	e8          	im -24
    1eb5:	3f          	callpcrel

00001eb6 <.LM132>:
    1eb6:	88          	im 8
    1eb7:	15          	addsp 20
    1eb8:	54          	storesp 16
    1eb9:	fb          	im -5
    1eba:	a3          	im 35
    1ebb:	39          	poppcrel

00001ebc <.L118>:
    1ebc:	77          	loadsp 28
    1ebd:	16          	addsp 24

00001ebe <.LM134>:
    1ebe:	78          	loadsp 32
    1ebf:	81          	im 1
    1ec0:	07          	or
    1ec1:	84          	im 4
    1ec2:	18          	addsp 32
    1ec3:	0c          	store

00001ec4 <.LM135>:
    1ec4:	8c          	im 12
    1ec5:	17          	addsp 28
    1ec6:	08          	load
    1ec7:	88          	im 8
    1ec8:	18          	addsp 32
    1ec9:	08          	load
    1eca:	71          	loadsp 4
    1ecb:	8c          	im 12
    1ecc:	12          	addsp 8
    1ecd:	0c          	store
    1ece:	88          	im 8
    1ecf:	12          	addsp 8
    1ed0:	0c          	store
    1ed1:	5c          	storesp 48

00001ed2 <.LM136>:
    1ed2:	70          	loadsp 0
    1ed3:	80          	im 0
    1ed4:	d7          	im -41
    1ed5:	b4          	im 52
    1ed6:	0c          	store
    1ed7:	70          	loadsp 0
    1ed8:	80          	im 0
    1ed9:	d7          	im -41
    1eda:	b0          	im 48
    1edb:	0c          	store
    1edc:	80          	im 0
    1edd:	d7          	im -41
    1ede:	a8          	im 40
    1edf:	0b          	nop
    1ee0:	8c          	im 12
    1ee1:	12          	addsp 8
    1ee2:	0c          	store
    1ee3:	8c          	im 12
    1ee4:	11          	addsp 4
    1ee5:	08          	load
    1ee6:	88          	im 8
    1ee7:	12          	addsp 8
    1ee8:	0c          	store

00001ee9 <.LM137>:
    1ee9:	77          	loadsp 28
    1eea:	81          	im 1
    1eeb:	07          	or
    1eec:	84          	im 4
    1eed:	12          	addsp 8
    1eee:	0c          	store

00001eef <.LM138>:
    1eef:	77          	loadsp 28
    1ef0:	05          	add
    1ef1:	77          	loadsp 28
    1ef2:	71          	loadsp 4
    1ef3:	0c          	store
    1ef4:	55          	storesp 20

00001ef5 <.LM139>:
    1ef5:	7c          	loadsp 48
    1ef6:	51          	storesp 4
    1ef7:	83          	im 3
    1ef8:	a4          	im 36
    1ef9:	3f          	callpcrel

00001efa <.LM140>:
    1efa:	88          	im 8
    1efb:	16          	addsp 24
    1efc:	54          	storesp 16
    1efd:	f5          	im -11
    1efe:	ba          	im 58
    1eff:	39          	poppcrel

00001f00 <.L119>:
    1f00:	72          	loadsp 8
    1f01:	16          	addsp 24
    1f02:	84          	im 4
    1f03:	11          	addsp 4
    1f04:	08          	load
    1f05:	81          	im 1
    1f06:	07          	or
    1f07:	84          	im 4
    1f08:	12          	addsp 8
    1f09:	0c          	store
    1f0a:	58          	storesp 32

00001f0b <.LM142>:
    1f0b:	8c          	im 12
    1f0c:	16          	addsp 24
    1f0d:	08          	load
    1f0e:	88          	im 8
    1f0f:	17          	addsp 28
    1f10:	08          	load
    1f11:	71          	loadsp 4
    1f12:	8c          	im 12
    1f13:	12          	addsp 8
    1f14:	0c          	store
    1f15:	88          	im 8
    1f16:	12          	addsp 8
    1f17:	0c          	store
    1f18:	57          	storesp 28

00001f19 <.LM143>:
    1f19:	7c          	loadsp 48
    1f1a:	51          	storesp 4
    1f1b:	83          	im 3
    1f1c:	80          	im 0
    1f1d:	3f          	callpcrel

00001f1e <.LM144>:
    1f1e:	88          	im 8
    1f1f:	16          	addsp 24
    1f20:	54          	storesp 16
    1f21:	f5          	im -11
    1f22:	96          	im 22
    1f23:	39          	poppcrel

00001f24 <.L96>:
    1f24:	72          	loadsp 8
    1f25:	84          	im 4
    1f26:	15          	addsp 20
    1f27:	0c          	store

00001f28 <.LM145>:
    1f28:	f4          	im -12
    1f29:	1a          	addsp 40
    1f2a:	f8          	im -8
    1f2b:	06          	and

00001f2c <.LM146>:
    1f2c:	70          	loadsp 0
    1f2d:	84          	im 4
    1f2e:	1d          	addsp 52
    1f2f:	08          	load
    1f30:	81          	im 1
    1f31:	06          	and
    1f32:	07          	or
    1f33:	84          	im 4
    1f34:	1d          	addsp 52
    1f35:	0c          	store

00001f36 <.LM147>:
    1f36:	70          	loadsp 0
    1f37:	1c          	addsp 48
    1f38:	55          	storesp 20
    1f39:	56          	storesp 24
    1f3a:	85          	im 5
    1f3b:	0b          	nop
    1f3c:	84          	im 4
    1f3d:	15          	addsp 20
    1f3e:	0c          	store

00001f3f <.LM148>:
    1f3f:	85          	im 5
    1f40:	0b          	nop
    1f41:	88          	im 8
    1f42:	15          	addsp 20
    1f43:	0c          	store

00001f44 <.LM149>:
    1f44:	8f          	im 15
    1f45:	76          	loadsp 24
    1f46:	27          	ulessthanorequal
    1f47:	fd          	im -3
    1f48:	ab          	im 43
    1f49:	38          	neqbranch

00001f4a <.LM150>:
    1f4a:	88          	im 8
    1f4b:	1b          	addsp 44
    1f4c:	52          	storesp 8
    1f4d:	7c          	loadsp 48
    1f4e:	51          	storesp 4
    1f4f:	eb          	im -21
    1f50:	e8          	im -24
    1f51:	3f          	callpcrel
    1f52:	80          	im 0
    1f53:	d7          	im -41
    1f54:	a0          	im 32
    1f55:	0b          	nop
    1f56:	88          	im 8
    1f57:	05          	add
    1f58:	08          	load
    1f59:	80          	im 0
    1f5a:	d6          	im -42
    1f5b:	e4          	im -28
    1f5c:	08          	load
    1f5d:	5a          	storesp 40
    1f5e:	55          	storesp 20
    1f5f:	fd          	im -3
    1f60:	93          	im 19
    1f61:	39          	poppcrel

00001f62 <.L159>:
    1f62:	78          	loadsp 32
    1f63:	80          	im 0
    1f64:	d6          	im -42
    1f65:	e4          	im -28
    1f66:	0c          	store

00001f67 <.LM151>:
    1f67:	73          	loadsp 12
    1f68:	80          	im 0
    1f69:	d7          	im -41
    1f6a:	94          	im 20
    1f6b:	0c          	store
    1f6c:	fb          	im -5
    1f6d:	ef          	im -17
    1f6e:	39          	poppcrel

00001f6f <.L115>:
    1f6f:	72          	loadsp 8
    1f70:	84          	im 4
    1f71:	15          	addsp 20
    1f72:	0c          	store
    1f73:	fc          	im -4
    1f74:	ff          	im -1
    1f75:	39          	poppcrel

00001f76 <memcpy>:
    1f76:	fb          	im -5
    1f77:	3d          	pushspadd
    1f78:	0d          	popsp
    1f79:	77          	loadsp 28

00001f7a <.LM2>:
    1f7a:	70          	loadsp 0

00001f7b <.LM3>:
    1f7b:	7a          	loadsp 40

00001f7c <.LM4>:
    1f7c:	7c          	loadsp 48
    1f7d:	58          	storesp 32
    1f7e:	55          	storesp 20
    1f7f:	53          	storesp 12
    1f80:	56          	storesp 24

00001f81 <.LM5>:
    1f81:	8f          	im 15
    1f82:	75          	loadsp 20
    1f83:	27          	ulessthanorequal
    1f84:	80          	im 0
    1f85:	e6          	im -26
    1f86:	38          	neqbranch
    1f87:	72          	loadsp 8
    1f88:	76          	loadsp 24
    1f89:	07          	or
    1f8a:	83          	im 3
    1f8b:	06          	and
    1f8c:	51          	storesp 4
    1f8d:	70          	loadsp 0
    1f8e:	80          	im 0
    1f8f:	dc          	im -36
    1f90:	38          	neqbranch

00001f91 <.LM6>:
    1f91:	75          	loadsp 20

00001f92 <.LM7>:
    1f92:	73          	loadsp 12
    1f93:	52          	storesp 8
    1f94:	54          	storesp 16

00001f95 <.L5>:
    1f95:	70          	loadsp 0
    1f96:	70          	loadsp 0
    1f97:	84          	im 4
    1f98:	05          	add
    1f99:	52          	storesp 8
    1f9a:	08          	load
    1f9b:	74          	loadsp 16
    1f9c:	70          	loadsp 0
    1f9d:	84          	im 4
    1f9e:	05          	add
    1f9f:	56          	storesp 24
    1fa0:	0c          	store
    1fa1:	73          	loadsp 12

00001fa2 <.LM9>:
    1fa2:	71          	loadsp 4
    1fa3:	70          	loadsp 0
    1fa4:	84          	im 4
    1fa5:	05          	add
    1fa6:	53          	storesp 12
    1fa7:	08          	load
    1fa8:	71          	loadsp 4
    1fa9:	70          	loadsp 0
    1faa:	84          	im 4
    1fab:	05          	add
    1fac:	53          	storesp 12
    1fad:	0c          	store

00001fae <.LM10>:
    1fae:	71          	loadsp 4
    1faf:	70          	loadsp 0
    1fb0:	84          	im 4
    1fb1:	05          	add
    1fb2:	53          	storesp 12
    1fb3:	08          	load
    1fb4:	71          	loadsp 4
    1fb5:	70          	loadsp 0
    1fb6:	84          	im 4
    1fb7:	05          	add
    1fb8:	53          	storesp 12
    1fb9:	0c          	store

00001fba <.LM11>:
    1fba:	71          	loadsp 4
    1fbb:	70          	loadsp 0
    1fbc:	84          	im 4
    1fbd:	05          	add
    1fbe:	53          	storesp 12
    1fbf:	08          	load
    1fc0:	71          	loadsp 4
    1fc1:	70          	loadsp 0
    1fc2:	84          	im 4
    1fc3:	05          	add
    1fc4:	53          	storesp 12
    1fc5:	0c          	store

00001fc6 <.LM12>:
    1fc6:	f0          	im -16
    1fc7:	16          	addsp 24
    1fc8:	56          	storesp 24
    1fc9:	54          	storesp 16
    1fca:	74          	loadsp 16
    1fcb:	8f          	im 15
    1fcc:	26          	ulessthan
    1fcd:	c7          	im -57
    1fce:	38          	neqbranch

00001fcf <.LM13>:
    1fcf:	83          	im 3
    1fd0:	75          	loadsp 20
    1fd1:	27          	ulessthanorequal
    1fd2:	95          	im 21
    1fd3:	38          	neqbranch

00001fd4 <.L28>:
    1fd4:	70          	loadsp 0
    1fd5:	70          	loadsp 0
    1fd6:	84          	im 4
    1fd7:	05          	add
    1fd8:	52          	storesp 8
    1fd9:	08          	load
    1fda:	74          	loadsp 16
    1fdb:	70          	loadsp 0
    1fdc:	84          	im 4
    1fdd:	05          	add
    1fde:	56          	storesp 24
    1fdf:	0c          	store

00001fe0 <.LM15>:
    1fe0:	fc          	im -4
    1fe1:	15          	addsp 20
    1fe2:	55          	storesp 20
    1fe3:	74          	loadsp 16
    1fe4:	83          	im 3
    1fe5:	26          	ulessthan
    1fe6:	ed          	im -19
    1fe7:	38          	neqbranch

00001fe8 <.L15>:
    1fe8:	73          	loadsp 12

00001fe9 <.LM17>:
    1fe9:	71          	loadsp 4
    1fea:	54          	storesp 16
    1feb:	52          	storesp 8

00001fec <.L2>:
    1fec:	ff          	im -1
    1fed:	15          	addsp 20
    1fee:	51          	storesp 4
    1fef:	70          	loadsp 0
    1ff0:	ff          	im -1
    1ff1:	2e          	eq
    1ff2:	98          	im 24
    1ff3:	38          	neqbranch

00001ff4 <.L29>:
    1ff4:	72          	loadsp 8
    1ff5:	70          	loadsp 0
    1ff6:	81          	im 1
    1ff7:	05          	add
    1ff8:	54          	storesp 16
    1ff9:	33          	loadb
    1ffa:	72          	loadsp 8
    1ffb:	70          	loadsp 0
    1ffc:	81          	im 1
    1ffd:	05          	add
    1ffe:	54          	storesp 16
    1fff:	34          	storeb
    2000:	ff          	im -1
    2001:	11          	addsp 4
    2002:	51          	storesp 4
    2003:	70          	loadsp 0
    2004:	ff          	im -1
    2005:	2e          	eq
    2006:	09          	not
    2007:	81          	im 1
    2008:	06          	and
    2009:	ea          	im -22
    200a:	38          	neqbranch

0000200b <.L17>:
    200b:	75          	loadsp 20
    200c:	80          	im 0
    200d:	0c          	store
    200e:	87          	im 7
    200f:	3d          	pushspadd
    2010:	0d          	popsp
    2011:	04          	poppc

00002012 <memset>:
    2012:	fb          	im -5
    2013:	3d          	pushspadd
    2014:	0d          	popsp
    2015:	77          	loadsp 28
    2016:	7a          	loadsp 40

00002017 <.LM2>:
    2017:	71          	loadsp 4

00002018 <.LM3>:
    2018:	02          	pushsp
    2019:	8c          	im 12
    201a:	05          	add
    201b:	a3          	im 35
    201c:	05          	add
    201d:	33          	loadb
    201e:	58          	storesp 32
    201f:	54          	storesp 16
    2020:	54          	storesp 16
    2021:	56          	storesp 24

00002022 <.LM4>:
    2022:	83          	im 3
    2023:	73          	loadsp 12
    2024:	27          	ulessthanorequal
    2025:	80          	im 0
    2026:	d4          	im -44
    2027:	38          	neqbranch
    2028:	75          	loadsp 20
    2029:	83          	im 3
    202a:	06          	and
    202b:	51          	storesp 4
    202c:	70          	loadsp 0
    202d:	80          	im 0
    202e:	cc          	im -52
    202f:	38          	neqbranch

00002030 <.LM5>:
    2030:	74          	loadsp 16
    2031:	88          	im 8
    2032:	2b          	ashiftleft
    2033:	75          	loadsp 20
    2034:	07          	or

00002035 <.LM6>:
    2035:	70          	loadsp 0
    2036:	71          	loadsp 4
    2037:	90          	im 16
    2038:	2b          	ashiftleft
