
dmips.elf:     file format elf32-zpu

Disassembly of section .fixed_vectors:

00000000 <_start>:
   0:	0b          	nop
   1:	0b          	nop
   2:	0b          	nop
   3:	0b          	nop
   4:	82          	im 2
   5:	70          	loadsp 0
   6:	0b          	nop
   7:	0b          	nop
   8:	80          	im 0
   9:	d5          	im -43
   a:	f4          	im -12
   b:	0c          	store
   c:	3a          	config
   d:	0b          	nop
   e:	0b          	nop
   f:	80          	im 0
  10:	c4          	im -60
  11:	fb          	im -5
  12:	04          	poppc
	...

00000020 <_zpu_interrupt_vector>:
  20:	80          	im 0
  21:	08          	load
  22:	84          	im 4
  23:	08          	load
  24:	88          	im 8
  25:	08          	load
  26:	0b          	nop
  27:	0b          	nop
  28:	80          	im 0
  29:	c5          	im -59
  2a:	c2          	im -62
  2b:	2d          	call
  2c:	88          	im 8
  2d:	0c          	store
  2e:	84          	im 4
  2f:	0c          	store
  30:	80          	im 0
  31:	0c          	store
  32:	04          	poppc
	...

00000040 <_loadh>:
  40:	71          	loadsp 4
  41:	fd          	im -3
  42:	06          	and
  43:	08          	load
  44:	72          	loadsp 8
  45:	83          	im 3
  46:	06          	and
  47:	09          	not
  48:	81          	im 1
  49:	05          	add
  4a:	82          	im 2
  4b:	05          	add
  4c:	83          	im 3
  4d:	2b          	ashiftleft
  4e:	2a          	lshiftright
  4f:	83          	im 3
  50:	ff          	im -1
  51:	ff          	im -1
  52:	06          	and
  53:	52          	storesp 8
  54:	04          	poppc
	...

00000060 <_storeh>:
  60:	71          	loadsp 4
  61:	fd          	im -3
  62:	06          	and
  63:	08          	load
  64:	83          	im 3
  65:	ff          	im -1
  66:	ff          	im -1
  67:	73          	loadsp 12
  68:	83          	im 3
  69:	06          	and
  6a:	09          	not
  6b:	81          	im 1
  6c:	05          	add
  6d:	82          	im 2
  6e:	05          	add
  6f:	83          	im 3
  70:	2b          	ashiftleft
  71:	2b          	ashiftleft
  72:	09          	not
  73:	06          	and
  74:	73          	loadsp 12
  75:	83          	im 3
  76:	ff          	im -1
  77:	ff          	im -1
  78:	0b          	nop
  79:	0b          	nop
  7a:	0b          	nop
  7b:	0b          	nop
  7c:	83          	im 3
  7d:	a7          	im 39
  7e:	04          	poppc
	...

00000080 <_lessthan>:
  80:	72          	loadsp 8
  81:	09          	not
  82:	81          	im 1
  83:	05          	add
  84:	72          	loadsp 8
  85:	05          	add
  86:	73          	loadsp 12
  87:	73          	loadsp 12
  88:	09          	not
  89:	06          	and
  8a:	09          	not
  8b:	06          	and
  8c:	73          	loadsp 12
  8d:	09          	not
  8e:	73          	loadsp 12
  8f:	06          	and
  90:	07          	or
  91:	0a          	flip
  92:	81          	im 1
  93:	06          	and
  94:	53          	storesp 12
  95:	51          	storesp 4
  96:	04          	poppc
	...

000000a0 <_lessthanorequal>:
  a0:	72          	loadsp 8
  a1:	72          	loadsp 8
  a2:	24          	lessthan
  a3:	73          	loadsp 12
  a4:	73          	loadsp 12
  a5:	2e          	eq
  a6:	07          	or
  a7:	53          	storesp 12
  a8:	51          	storesp 4
  a9:	04          	poppc
	...

000000c0 <_ulessthan>:
  c0:	71          	loadsp 4
  c1:	73          	loadsp 12
  c2:	71          	loadsp 4
  c3:	09          	not
  c4:	71          	loadsp 4
  c5:	06          	and
  c6:	81          	im 1
  c7:	06          	and
  c8:	30          	neg
  c9:	72          	loadsp 8
  ca:	0a          	flip
  cb:	10          	addsp 0
  cc:	0a          	flip
  cd:	72          	loadsp 8
  ce:	0a          	flip
  cf:	10          	addsp 0
  d0:	0a          	flip
  d1:	31          	sub
  d2:	05          	add
  d3:	0a          	flip
  d4:	81          	im 1
  d5:	06          	and
  d6:	51          	storesp 4
  d7:	51          	storesp 4
  d8:	53          	storesp 12
  d9:	51          	storesp 4
  da:	04          	poppc
  db:	00          	breakpoint
  dc:	00          	breakpoint
  dd:	00          	breakpoint
	...

000000e0 <_ulessthanorequal>:
  e0:	72          	loadsp 8
  e1:	72          	loadsp 8
  e2:	26          	ulessthan
  e3:	73          	loadsp 12
  e4:	73          	loadsp 12
  e5:	2e          	eq
  e6:	07          	or
  e7:	53          	storesp 12
  e8:	51          	storesp 4
  e9:	04          	poppc
	...

00000100 <_swap>:
	...

00000120 <_slowmult>:
 120:	0b          	nop
 121:	0b          	nop
 122:	0b          	nop
 123:	88          	im 8
 124:	c3          	im -61
 125:	04          	poppc
	...

00000140 <_lshiftright>:
 140:	72          	loadsp 8
 141:	0a          	flip
 142:	72          	loadsp 8
 143:	2b          	ashiftleft
 144:	0a          	flip
 145:	53          	storesp 12
 146:	51          	storesp 4
 147:	04          	poppc
	...

00000160 <_ashiftleft>:
 160:	72          	loadsp 8
 161:	72          	loadsp 8
 162:	9f          	im 31
 163:	06          	and
 164:	09          	not
 165:	81          	im 1
 166:	05          	add
 167:	0b          	nop
 168:	0b          	nop
 169:	0b          	nop
 16a:	88          	im 8
 16b:	a6          	im 38
 16c:	05          	add
 16d:	04          	poppc
	...

00000180 <_ashiftright>:
 180:	72          	loadsp 8
 181:	72          	loadsp 8
 182:	2a          	lshiftright
 183:	ff          	im -1
 184:	73          	loadsp 12
 185:	9f          	im 31
 186:	06          	and
 187:	2a          	lshiftright
 188:	09          	not
 189:	74          	loadsp 16
 18a:	09          	not
 18b:	0a          	flip
 18c:	81          	im 1
 18d:	06          	and
 18e:	ff          	im -1
 18f:	05          	add
 190:	06          	and
 191:	07          	or
 192:	53          	storesp 12
 193:	51          	storesp 4
 194:	04          	poppc
	...

000001a0 <_call>:
 1a0:	71          	loadsp 4
 1a1:	71          	loadsp 4
 1a2:	53          	storesp 12
 1a3:	51          	storesp 4
 1a4:	02          	pushsp
 1a5:	0d          	popsp
 1a6:	04          	poppc

000001a7 <_storehtail>:
 1a7:	06          	and
 1a8:	73          	loadsp 12
 1a9:	83          	im 3
 1aa:	06          	and
 1ab:	09          	not
 1ac:	81          	im 1
 1ad:	05          	add
 1ae:	82          	im 2
 1af:	05          	add
 1b0:	83          	im 3
 1b1:	2b          	ashiftleft
 1b2:	0b          	nop
 1b3:	2b          	ashiftleft
 1b4:	07          	or
 1b5:	72          	loadsp 8
 1b6:	fc          	im -4
 1b7:	06          	and
 1b8:	0c          	store
 1b9:	51          	storesp 4
 1ba:	51          	storesp 4
 1bb:	04          	poppc
 1bc:	00          	breakpoint
 1bd:	00          	breakpoint
	...

000001c0 <_eq>:
 1c0:	72          	loadsp 8
 1c1:	09          	not
 1c2:	81          	im 1
 1c3:	05          	add
 1c4:	72          	loadsp 8
 1c5:	05          	add
 1c6:	09          	not
 1c7:	70          	loadsp 0
 1c8:	81          	im 1
 1c9:	05          	add
 1ca:	09          	not
 1cb:	06          	and
 1cc:	0a          	flip
 1cd:	81          	im 1
 1ce:	06          	and
 1cf:	53          	storesp 12
 1d0:	51          	storesp 4
 1d1:	04          	poppc
	...

000001e0 <_neq>:
 1e0:	72          	loadsp 8
 1e1:	09          	not
 1e2:	81          	im 1
 1e3:	05          	add
 1e4:	72          	loadsp 8
 1e5:	05          	add
 1e6:	09          	not
 1e7:	70          	loadsp 0
 1e8:	81          	im 1
 1e9:	05          	add
 1ea:	09          	not
 1eb:	06          	and
 1ec:	0a          	flip
 1ed:	09          	not
 1ee:	81          	im 1
 1ef:	06          	and
 1f0:	53          	storesp 12
 1f1:	51          	storesp 4
 1f2:	04          	poppc
	...

00000200 <_neg>:
 200:	71          	loadsp 4
 201:	09          	not
 202:	81          	im 1
 203:	05          	add
 204:	52          	storesp 8
 205:	04          	poppc
	...

00000220 <_sub>:
 220:	72          	loadsp 8
 221:	72          	loadsp 8
 222:	09          	not
 223:	81          	im 1
 224:	05          	add
 225:	05          	add
 226:	53          	storesp 12
 227:	51          	storesp 4
 228:	04          	poppc
	...

00000240 <_xor>:
 240:	72          	loadsp 8
 241:	09          	not
 242:	72          	loadsp 8
 243:	06          	and
 244:	73          	loadsp 12
 245:	73          	loadsp 12
 246:	09          	not
 247:	06          	and
 248:	07          	or
 249:	53          	storesp 12
 24a:	51          	storesp 4
 24b:	04          	poppc
	...

00000260 <_loadb>:
 260:	71          	loadsp 4
 261:	fc          	im -4
 262:	06          	and
 263:	08          	load
 264:	72          	loadsp 8
 265:	83          	im 3
 266:	06          	and
 267:	09          	not
 268:	81          	im 1
 269:	05          	add
 26a:	83          	im 3
 26b:	05          	add
 26c:	10          	addsp 0
 26d:	10          	addsp 0
 26e:	10          	addsp 0
 26f:	2a          	lshiftright
 270:	81          	im 1
 271:	ff          	im -1
 272:	06          	and
 273:	52          	storesp 8
 274:	04          	poppc
	...

00000280 <_storeb>:
 280:	71          	loadsp 4
 281:	fc          	im -4
 282:	06          	and
 283:	08          	load
 284:	0b          	nop
 285:	0b          	nop
 286:	80          	im 0
 287:	d5          	im -43
 288:	e0          	im -32
 289:	73          	loadsp 12
 28a:	83          	im 3
 28b:	06          	and
 28c:	10          	addsp 0
 28d:	10          	addsp 0
 28e:	05          	add
 28f:	08          	load
 290:	06          	and
 291:	0b          	nop
 292:	0b          	nop
 293:	0b          	nop
 294:	88          	im 8
 295:	a9          	im 41
 296:	04          	poppc
	...

000002a0 <_div>:
 2a0:	80          	im 0
 2a1:	08          	load
 2a2:	84          	im 4
 2a3:	08          	load
 2a4:	88          	im 8
 2a5:	08          	load
 2a6:	75          	loadsp 20
 2a7:	75          	loadsp 20
 2a8:	0b          	nop
 2a9:	0b          	nop
 2aa:	0b          	nop
 2ab:	ad          	im 45
 2ac:	aa          	im 42
 2ad:	2d          	call
 2ae:	50          	storesp 0
 2af:	50          	storesp 0
 2b0:	80          	im 0
 2b1:	08          	load
 2b2:	56          	storesp 24
 2b3:	88          	im 8
 2b4:	0c          	store
 2b5:	84          	im 4
 2b6:	0c          	store
 2b7:	80          	im 0
 2b8:	0c          	store
 2b9:	51          	storesp 4
 2ba:	04          	poppc
 2bb:	00          	breakpoint
 2bc:	00          	breakpoint
 2bd:	00          	breakpoint
	...

000002c0 <_mod>:
 2c0:	80          	im 0
 2c1:	08          	load
 2c2:	84          	im 4
 2c3:	08          	load
 2c4:	88          	im 8
 2c5:	08          	load
 2c6:	75          	loadsp 20
 2c7:	75          	loadsp 20
 2c8:	0b          	nop
 2c9:	0b          	nop
 2ca:	0b          	nop
 2cb:	ad          	im 45
 2cc:	ee          	im -18
 2cd:	2d          	call
 2ce:	50          	storesp 0
 2cf:	50          	storesp 0
 2d0:	80          	im 0
 2d1:	08          	load
 2d2:	56          	storesp 24
 2d3:	88          	im 8
 2d4:	0c          	store
 2d5:	84          	im 4
 2d6:	0c          	store
 2d7:	80          	im 0
 2d8:	0c          	store
 2d9:	51          	storesp 4
 2da:	04          	poppc
 2db:	00          	breakpoint
 2dc:	00          	breakpoint
 2dd:	00          	breakpoint
	...

000002e0 <_eqbranch>:
 2e0:	72          	loadsp 8
 2e1:	09          	not
 2e2:	70          	loadsp 0
 2e3:	81          	im 1
 2e4:	05          	add
 2e5:	09          	not
 2e6:	06          	and
 2e7:	0a          	flip
 2e8:	81          	im 1
 2e9:	06          	and
 2ea:	ff          	im -1
 2eb:	05          	add
 2ec:	70          	loadsp 0
 2ed:	54          	storesp 16
 2ee:	71          	loadsp 4
 2ef:	06          	and
 2f0:	73          	loadsp 12
 2f1:	09          	not
 2f2:	72          	loadsp 8
 2f3:	74          	loadsp 16
 2f4:	05          	add
 2f5:	ff          	im -1
 2f6:	05          	add
 2f7:	06          	and
 2f8:	07          	or
 2f9:	51          	storesp 4
 2fa:	51          	storesp 4
 2fb:	51          	storesp 4
 2fc:	04          	poppc
 2fd:	00          	breakpoint
	...

00000300 <_neqbranch>:
 300:	72          	loadsp 8
 301:	09          	not
 302:	70          	loadsp 0
 303:	81          	im 1
 304:	05          	add
 305:	09          	not
 306:	06          	and
 307:	0a          	flip
 308:	09          	not
 309:	81          	im 1
 30a:	06          	and
 30b:	ff          	im -1
 30c:	05          	add
 30d:	70          	loadsp 0
 30e:	54          	storesp 16
 30f:	71          	loadsp 4
 310:	06          	and
 311:	73          	loadsp 12
 312:	09          	not
 313:	72          	loadsp 8
 314:	74          	loadsp 16
 315:	05          	add
 316:	ff          	im -1
 317:	05          	add
 318:	06          	and
 319:	07          	or
 31a:	51          	storesp 4
 31b:	51          	storesp 4
 31c:	51          	storesp 4
 31d:	04          	poppc
	...

00000320 <_poppcrel>:
 320:	05          	add
 321:	ff          	im -1
 322:	05          	add
 323:	04          	poppc
	...

00000340 <_config>:
 340:	81          	im 1
 341:	0b          	nop
 342:	0b          	nop
 343:	0b          	nop
 344:	80          	im 0
 345:	d5          	im -43
 346:	f0          	im -16
 347:	0c          	store
 348:	51          	storesp 4
 349:	04          	poppc
	...

00000360 <_pushpc>:
 360:	71          	loadsp 4
 361:	81          	im 1
 362:	05          	add
 363:	52          	storesp 8
 364:	04          	poppc
	...

00000380 <_syscall_emulate>:
	...

000003a0 <_pushspadd>:
 3a0:	02          	pushsp
 3a1:	84          	im 4
 3a2:	05          	add
 3a3:	72          	loadsp 8
 3a4:	10          	addsp 0
 3a5:	10          	addsp 0
 3a6:	05          	add
 3a7:	52          	storesp 8
 3a8:	04          	poppc
	...

000003c0 <_halfmult>:
	...

000003e0 <_callpcrel>:
 3e0:	71          	loadsp 4
 3e1:	71          	loadsp 4
 3e2:	05          	add
 3e3:	ff          	im -1
 3e4:	05          	add
 3e5:	71          	loadsp 4
 3e6:	53          	storesp 12
 3e7:	51          	storesp 4
 3e8:	02          	pushsp
 3e9:	0d          	popsp
 3ea:	04          	poppc
	...
Disassembly of section .init:

00000400 <_init>:
 400:	82          	im 2
 401:	fd          	im -3
 402:	3f          	callpcrel
 403:	bf          	im 63
 404:	a0          	im 32
 405:	3f          	callpcrel
 406:	04          	poppc
Disassembly of section .text:

00000407 <_ashiftleftBegin>:
     407:	10          	addsp 0
     408:	10          	addsp 0
     409:	10          	addsp 0
     40a:	10          	addsp 0
     40b:	10          	addsp 0
     40c:	10          	addsp 0
     40d:	10          	addsp 0
     40e:	10          	addsp 0
     40f:	10          	addsp 0
     410:	10          	addsp 0
     411:	10          	addsp 0
     412:	10          	addsp 0
     413:	10          	addsp 0
     414:	10          	addsp 0
     415:	10          	addsp 0
     416:	10          	addsp 0
     417:	10          	addsp 0
     418:	10          	addsp 0
     419:	10          	addsp 0
     41a:	10          	addsp 0
     41b:	10          	addsp 0
     41c:	10          	addsp 0
     41d:	10          	addsp 0
     41e:	10          	addsp 0
     41f:	10          	addsp 0
     420:	10          	addsp 0
     421:	10          	addsp 0
     422:	10          	addsp 0
     423:	10          	addsp 0
     424:	10          	addsp 0
     425:	10          	addsp 0

00000426 <_ashiftleftEnd>:
     426:	53          	storesp 12
     427:	51          	storesp 4
     428:	04          	poppc

00000429 <_storebtail>:
     429:	73          	loadsp 12
     42a:	81          	im 1
     42b:	ff          	im -1
     42c:	06          	and
     42d:	73          	loadsp 12
     42e:	83          	im 3
     42f:	06          	and
     430:	09          	not
     431:	81          	im 1
     432:	05          	add
     433:	83          	im 3
     434:	05          	add
     435:	10          	addsp 0
     436:	10          	addsp 0
     437:	10          	addsp 0
     438:	2b          	ashiftleft
     439:	07          	or
     43a:	72          	loadsp 8
     43b:	fc          	im -4
     43c:	06          	and
     43d:	0c          	store
     43e:	51          	storesp 4
     43f:	51          	storesp 4
     440:	04          	poppc

00000441 <_syscall>:
     441:	3c          	syscall
     442:	04          	poppc

00000443 <_slowmultImpl>:
     443:	72          	loadsp 8
     444:	72          	loadsp 8
     445:	80          	im 0
     446:	72          	loadsp 8
     447:	81          	im 1
     448:	06          	and
     449:	ff          	im -1
     44a:	05          	add
     44b:	09          	not
     44c:	72          	loadsp 8
     44d:	06          	and
     44e:	05          	add
     44f:	71          	loadsp 4
     450:	10          	addsp 0
     451:	52          	storesp 8
     452:	72          	loadsp 8
     453:	0a          	flip
     454:	10          	addsp 0
     455:	0a          	flip
     456:	53          	storesp 12
     457:	72          	loadsp 8
     458:	ed          	im -19
     459:	38          	neqbranch
     45a:	51          	storesp 4
     45b:	51          	storesp 4
     45c:	53          	storesp 12
     45d:	51          	storesp 4
     45e:	04          	poppc

0000045f <outbyte>:
     45f:	ff          	im -1
     460:	3d          	pushspadd
     461:	0d          	popsp
     462:	0b          	nop
     463:	0b          	nop
     464:	80          	im 0
     465:	e5          	im -27
     466:	e4          	im -28
     467:	08          	load
     468:	52          	storesp 8

00000469 <.L9>:
     469:	71          	loadsp 4
     46a:	08          	load
     46b:	70          	loadsp 0
     46c:	88          	im 8
     46d:	2a          	lshiftright
     46e:	81          	im 1
     46f:	32          	xor
     470:	70          	loadsp 0
     471:	81          	im 1
     472:	06          	and
     473:	51          	storesp 4
     474:	51          	storesp 4
     475:	51          	storesp 4
     476:	70          	loadsp 0
     477:	f1          	im -15
     478:	38          	neqbranch

00000479 <.LSM7>:
     479:	73          	loadsp 12
     47a:	72          	loadsp 8
     47b:	0c          	store
     47c:	83          	im 3
     47d:	3d          	pushspadd
     47e:	0d          	popsp
     47f:	04          	poppc

00000480 <_initIO>:
     480:	80          	im 0
     481:	d5          	im -43
     482:	f0          	im -16
     483:	08          	load
     484:	80          	im 0
     485:	2e          	eq
     486:	a4          	im 36
     487:	38          	neqbranch

00000488 <.LSM10>:
     488:	80          	im 0
     489:	d5          	im -43
     48a:	f4          	im -12
     48b:	08          	load
     48c:	82          	im 2
     48d:	2e          	eq
     48e:	bd          	im 61
     48f:	38          	neqbranch

00000490 <.LSM11>:
     490:	83          	im 3
     491:	80          	im 0
     492:	80          	im 0
     493:	0b          	nop
     494:	0b          	nop
     495:	0b          	nop
     496:	80          	im 0
     497:	e5          	im -27
     498:	e4          	im -28
     499:	0c          	store

0000049a <.LSM12>:
     49a:	82          	im 2
     49b:	a0          	im 32
     49c:	80          	im 0
     49d:	0b          	nop
     49e:	80          	im 0
     49f:	e5          	im -27
     4a0:	e8          	im -24
     4a1:	0c          	store

000004a2 <.LSM13>:
     4a2:	82          	im 2
     4a3:	90          	im 16
     4a4:	80          	im 0
     4a5:	0b          	nop
     4a6:	80          	im 0
     4a7:	e5          	im -27
     4a8:	ec          	im -20
     4a9:	0c          	store

000004aa <.LSM14>:
     4aa:	04          	poppc

000004ab <.L15>:
     4ab:	f8          	im -8
     4ac:	80          	im 0
     4ad:	80          	im 0
     4ae:	80          	im 0
     4af:	a4          	im 36
     4b0:	0b          	nop
     4b1:	0b          	nop
     4b2:	0b          	nop
     4b3:	80          	im 0
     4b4:	e5          	im -27
     4b5:	e4          	im -28
     4b6:	0c          	store

000004b7 <.LSM16>:
     4b7:	f8          	im -8
     4b8:	80          	im 0
     4b9:	80          	im 0
     4ba:	82          	im 2
     4bb:	80          	im 0
     4bc:	0b          	nop
     4bd:	80          	im 0
     4be:	e5          	im -27
     4bf:	e8          	im -24
     4c0:	0c          	store

000004c1 <.LSM17>:
     4c1:	f8          	im -8
     4c2:	80          	im 0
     4c3:	80          	im 0
     4c4:	84          	im 4
     4c5:	80          	im 0
     4c6:	0b          	nop
     4c7:	80          	im 0
     4c8:	e5          	im -27
     4c9:	ec          	im -20
     4ca:	0c          	store

000004cb <.LSM18>:
     4cb:	04          	poppc

000004cc <.L20>:
     4cc:	80          	im 0
     4cd:	c0          	im -64
     4ce:	a8          	im 40
     4cf:	80          	im 0
     4d0:	8c          	im 12
     4d1:	0b          	nop
     4d2:	0b          	nop
     4d3:	0b          	nop
     4d4:	80          	im 0
     4d5:	e5          	im -27
     4d6:	e4          	im -28
     4d7:	0c          	store

000004d8 <.LSM20>:
     4d8:	80          	im 0
     4d9:	c0          	im -64
     4da:	a8          	im 40
     4db:	80          	im 0
     4dc:	94          	im 20
     4dd:	0b          	nop
     4de:	80          	im 0
     4df:	e5          	im -27
     4e0:	e8          	im -24
     4e1:	0c          	store

000004e2 <.LSM21>:
     4e2:	0b          	nop
     4e3:	0b          	nop
     4e4:	80          	im 0
     4e5:	c7          	im -57
     4e6:	d0          	im -48
     4e7:	0b          	nop
     4e8:	80          	im 0
     4e9:	e5          	im -27
     4ea:	ec          	im -20
     4eb:	0c          	store

000004ec <.LSM22>:
     4ec:	04          	poppc

000004ed <_readCycles>:
     4ed:	f2          	im -14
     4ee:	3d          	pushspadd
     4ef:	0d          	popsp
     4f0:	60          	loadsp 64

000004f1 <.LSM24>:
     4f1:	80          	im 0
     4f2:	e5          	im -27
     4f3:	e8          	im -24
     4f4:	08          	load
     4f5:	56          	storesp 24
     4f6:	5d          	storesp 52
     4f7:	82          	im 2
     4f8:	75          	loadsp 20
     4f9:	0c          	store

000004fa <.LSM25>:
     4fa:	80          	im 0
     4fb:	59          	storesp 36
     4fc:	80          	im 0
     4fd:	5a          	storesp 40

000004fe <.LSM26>:
     4fe:	80          	im 0
     4ff:	0b          	nop
     500:	8f          	im 15
     501:	3d          	pushspadd
     502:	5d          	storesp 52
     503:	5b          	storesp 44

00000504 <.L25>:
     504:	7a          	loadsp 40
     505:	10          	addsp 0
     506:	10          	addsp 0
     507:	15          	addsp 20
     508:	70          	loadsp 0
     509:	08          	load
     50a:	71          	loadsp 4
     50b:	08          	load
     50c:	71          	loadsp 4
     50d:	9f          	im 31
     50e:	2c          	ashiftright
     50f:	7e          	loadsp 56
     510:	85          	im 5
     511:	2b          	ashiftleft
     512:	58          	storesp 32
     513:	55          	storesp 20
     514:	55          	storesp 20
     515:	7d          	loadsp 52
     516:	53          	storesp 12
     517:	59          	storesp 36
     518:	57          	storesp 28
     519:	99          	im 25
     51a:	99          	im 25
     51b:	3f          	callpcrel
     51c:	7d          	loadsp 52
     51d:	7f          	loadsp 60
     51e:	7a          	loadsp 40
     51f:	72          	loadsp 8
     520:	07          	or
     521:	7c          	loadsp 48
     522:	72          	loadsp 8
     523:	07          	or
     524:	71          	loadsp 4
     525:	71          	loadsp 4

00000526 <.LSM28>:
     526:	60          	loadsp 64
     527:	81          	im 1
     528:	05          	add
     529:	41          	storesp 68
     52a:	5f          	storesp 60
     52b:	5d          	storesp 52
     52c:	5b          	storesp 44
     52d:	59          	storesp 36
     52e:	57          	storesp 28
     52f:	55          	storesp 20
     530:	81          	im 1
     531:	7b          	loadsp 44
     532:	27          	ulessthanorequal
     533:	8f          	im 15
     534:	38          	neqbranch

00000535 <.LSM29>:
     535:	76          	loadsp 24
     536:	7d          	loadsp 52
     537:	0c          	store
     538:	77          	loadsp 28
     539:	84          	im 4
     53a:	1e          	addsp 56
     53b:	0c          	store

0000053c <.LSM30>:
     53c:	7c          	loadsp 48
     53d:	80          	im 0
     53e:	0c          	store
     53f:	90          	im 16
     540:	3d          	pushspadd
     541:	0d          	popsp
     542:	04          	poppc

00000543 <.L28>:
     543:	80          	im 0
     544:	e5          	im -27
     545:	e8          	im -24
     546:	08          	load
     547:	55          	storesp 20
     548:	ff          	im -1
     549:	ba          	im 58
     54a:	39          	poppcrel

0000054b <__do_global_dtors_aux>:
     54b:	70          	loadsp 0
     54c:	70          	loadsp 0
     54d:	80          	im 0
     54e:	e5          	im -27
     54f:	f0          	im -16
     550:	33          	loadb
     551:	51          	storesp 4
     552:	70          	loadsp 0
     553:	a7          	im 39
     554:	38          	neqbranch
     555:	80          	im 0
     556:	d5          	im -43
     557:	fc          	im -4
     558:	08          	load
     559:	70          	loadsp 0
     55a:	08          	load
     55b:	52          	storesp 8
     55c:	52          	storesp 8
     55d:	70          	loadsp 0
     55e:	80          	im 0
     55f:	2e          	eq
     560:	94          	im 20
     561:	38          	neqbranch

00000562 <.L12>:
     562:	84          	im 4
     563:	12          	addsp 8
     564:	80          	im 0
     565:	d5          	im -43
     566:	fc          	im -4
     567:	0c          	store
     568:	70          	loadsp 0
     569:	2d          	call
     56a:	80          	im 0
     56b:	d5          	im -43
     56c:	fc          	im -4
     56d:	08          	load
     56e:	70          	loadsp 0
     56f:	08          	load
     570:	52          	storesp 8
     571:	52          	storesp 8
     572:	70          	loadsp 0
     573:	ee          	im -18
     574:	38          	neqbranch

00000575 <.L7>:
     575:	81          	im 1
     576:	0b          	nop
     577:	80          	im 0
     578:	e5          	im -27
     579:	f0          	im -16
     57a:	34          	storeb

0000057b <.L1>:
     57b:	50          	storesp 0
     57c:	50          	storesp 0
     57d:	04          	poppc

0000057e <call___do_global_dtors_aux>:
     57e:	04          	poppc

0000057f <frame_dummy>:
     57f:	70          	loadsp 0
     580:	0b          	nop
     581:	0b          	nop
     582:	80          	im 0
     583:	e5          	im -27
     584:	e0          	im -32
     585:	08          	load
     586:	80          	im 0
     587:	2e          	eq
     588:	8e          	im 14
     589:	38          	neqbranch
     58a:	0b          	nop
     58b:	0b          	nop
     58c:	0b          	nop
     58d:	0b          	nop
     58e:	80          	im 0
     58f:	0b          	nop
     590:	80          	im 0
     591:	2e          	eq
     592:	09          	not
     593:	81          	im 1
     594:	06          	and
     595:	83          	im 3
     596:	38          	neqbranch

00000597 <.L14>:
     597:	50          	storesp 0
     598:	04          	poppc

00000599 <.L17>:
     599:	0b          	nop
     59a:	0b          	nop
     59b:	80          	im 0
     59c:	e5          	im -27
     59d:	e0          	im -32
     59e:	51          	storesp 4
     59f:	0b          	nop
     5a0:	0b          	nop
     5a1:	0b          	nop
     5a2:	f4          	im -12
     5a3:	dc          	im -36
     5a4:	3f          	callpcrel
     5a5:	50          	storesp 0
     5a6:	04          	poppc

000005a7 <call_frame_dummy>:
     5a7:	04          	poppc

000005a8 <_diag_write_char>:
     5a8:	ff          	im -1
     5a9:	3d          	pushspadd
     5aa:	0d          	popsp
     5ab:	02          	pushsp
     5ac:	8f          	im 15
     5ad:	05          	add
     5ae:	33          	loadb
     5af:	52          	storesp 8
     5b0:	71          	loadsp 4
     5b1:	8a          	im 10
     5b2:	2e          	eq
     5b3:	8a          	im 10
     5b4:	38          	neqbranch
     5b5:	71          	loadsp 4
     5b6:	51          	storesp 4
     5b7:	fd          	im -3
     5b8:	a6          	im 38
     5b9:	3f          	callpcrel
     5ba:	83          	im 3
     5bb:	3d          	pushspadd
     5bc:	0d          	popsp
     5bd:	04          	poppc

000005be <.L4>:
     5be:	8d          	im 13
     5bf:	51          	storesp 4
     5c0:	fd          	im -3
     5c1:	9d          	im 29
     5c2:	3f          	callpcrel
     5c3:	71          	loadsp 4
     5c4:	51          	storesp 4
     5c5:	fd          	im -3
     5c6:	98          	im 24
     5c7:	3f          	callpcrel
     5c8:	83          	im 3
     5c9:	3d          	pushspadd
     5ca:	0d          	popsp
     5cb:	04          	poppc

000005cc <small_printf>:
     5cc:	ce          	im -50
     5cd:	3d          	pushspadd
     5ce:	0d          	popsp
     5cf:	b5          	im 53
     5d0:	3d          	pushspadd
     5d1:	70          	loadsp 0
     5d2:	70          	loadsp 0
     5d3:	84          	im 4
     5d4:	05          	add
     5d5:	52          	storesp 8
     5d6:	08          	load
     5d7:	8b          	im 11
     5d8:	a8          	im 40
     5d9:	5c          	storesp 48
     5da:	56          	storesp 24
     5db:	a5          	im 37
     5dc:	3d          	pushspadd
     5dd:	5e          	storesp 56
     5de:	5c          	storesp 48
     5df:	80          	im 0
     5e0:	75          	loadsp 20
     5e1:	70          	loadsp 0
     5e2:	81          	im 1
     5e3:	05          	add
     5e4:	57          	storesp 28
     5e5:	33          	loadb
     5e6:	76          	loadsp 24
     5e7:	5b          	storesp 44
     5e8:	55          	storesp 20
     5e9:	58          	storesp 32
     5ea:	73          	loadsp 12
     5eb:	78          	loadsp 32
     5ec:	2e          	eq
     5ed:	80          	im 0
     5ee:	c1          	im -63
     5ef:	38          	neqbranch
     5f0:	8e          	im 14
     5f1:	3d          	pushspadd
     5f2:	5b          	storesp 44

000005f3 <.L44>:
     5f3:	73          	loadsp 12
     5f4:	a5          	im 37
     5f5:	2e          	eq
     5f6:	09          	not
     5f7:	81          	im 1
     5f8:	06          	and
     5f9:	80          	im 0
     5fa:	c5          	im -59
     5fb:	38          	neqbranch
     5fc:	78          	loadsp 32
     5fd:	70          	loadsp 0
     5fe:	81          	im 1
     5ff:	05          	add
     600:	5a          	storesp 40
     601:	33          	loadb
     602:	54          	storesp 16
     603:	73          	loadsp 12
     604:	80          	im 0
     605:	e4          	im -28
     606:	2e          	eq
     607:	81          	im 1
     608:	b6          	im 54
     609:	38          	neqbranch
     60a:	73          	loadsp 12
     60b:	80          	im 0
     60c:	e4          	im -28
     60d:	24          	lessthan
     60e:	80          	im 0
     60f:	c6          	im -58
     610:	38          	neqbranch
     611:	73          	loadsp 12
     612:	80          	im 0
     613:	e3          	im -29
     614:	2e          	eq
     615:	a1          	im 33
     616:	38          	neqbranch

00000617 <.L38>:
     617:	80          	im 0
     618:	52          	storesp 8
     619:	a5          	im 37
     61a:	51          	storesp 4
     61b:	79          	loadsp 36
     61c:	2d          	call
     61d:	80          	im 0
     61e:	52          	storesp 8
     61f:	73          	loadsp 12
     620:	51          	storesp 4
     621:	79          	loadsp 36
     622:	2d          	call
     623:	82          	im 2
     624:	18          	addsp 32
     625:	58          	storesp 32

00000626 <.L6>:
     626:	78          	loadsp 32
     627:	70          	loadsp 0
     628:	81          	im 1
     629:	05          	add
     62a:	5a          	storesp 40
     62b:	33          	loadb
     62c:	54          	storesp 16
     62d:	73          	loadsp 12
     62e:	c4          	im -60
     62f:	38          	neqbranch

00000630 <.L48>:
     630:	77          	loadsp 28
     631:	80          	im 0
     632:	0c          	store
     633:	b4          	im 52
     634:	3d          	pushspadd
     635:	0d          	popsp
     636:	04          	poppc

00000637 <.L69>:
     637:	7b          	loadsp 44
     638:	84          	im 4
     639:	1d          	addsp 52
     63a:	83          	im 3
     63b:	12          	addsp 8
     63c:	33          	loadb
     63d:	56          	storesp 24
     63e:	5d          	storesp 52
     63f:	57          	storesp 28

00000640 <.L8>:
     640:	80          	im 0
     641:	52          	storesp 8
     642:	73          	loadsp 12
     643:	51          	storesp 4
     644:	79          	loadsp 36
     645:	2d          	call
     646:	81          	im 1
     647:	18          	addsp 32
     648:	79          	loadsp 36
     649:	70          	loadsp 0
     64a:	81          	im 1
     64b:	05          	add
     64c:	5b          	storesp 44
     64d:	33          	loadb
     64e:	55          	storesp 20
     64f:	58          	storesp 32
     650:	73          	loadsp 12
     651:	ff          	im -1
     652:	a0          	im 32
     653:	38          	neqbranch
     654:	db          	im -37
     655:	39          	poppcrel

00000656 <.L39>:
     656:	73          	loadsp 12
     657:	80          	im 0
     658:	f3          	im -13
     659:	2e          	eq
     65a:	09          	not
     65b:	81          	im 1
     65c:	06          	and
     65d:	ff          	im -1
     65e:	b8          	im 56
     65f:	38          	neqbranch
     660:	7b          	loadsp 44
     661:	84          	im 4
     662:	1d          	addsp 52
     663:	71          	loadsp 4
     664:	08          	load
     665:	59          	storesp 36
     666:	5d          	storesp 52
     667:	56          	storesp 24
     668:	80          	im 0
     669:	77          	loadsp 28
     66a:	33          	loadb
     66b:	55          	storesp 20
     66c:	56          	storesp 24
     66d:	73          	loadsp 12
     66e:	76          	loadsp 24
     66f:	2e          	eq
     670:	8d          	im 13
     671:	38          	neqbranch

00000672 <.L56>:
     672:	81          	im 1
     673:	16          	addsp 24
     674:	70          	loadsp 0
     675:	18          	addsp 32
     676:	70          	loadsp 0
     677:	33          	loadb
     678:	57          	storesp 28
     679:	55          	storesp 20
     67a:	56          	storesp 24
     67b:	74          	loadsp 16
     67c:	f5          	im -11
     67d:	38          	neqbranch

0000067e <.L20>:
     67e:	ff          	im -1
     67f:	16          	addsp 24
     680:	55          	storesp 20
     681:	80          	im 0
     682:	76          	loadsp 24
     683:	25          	lessthanorequal
     684:	ff          	im -1
     685:	a0          	im 32
     686:	38          	neqbranch

00000687 <.L59>:
     687:	76          	loadsp 24
     688:	70          	loadsp 0
     689:	81          	im 1
     68a:	05          	add
     68b:	58          	storesp 32
     68c:	33          	loadb
     68d:	54          	storesp 16
     68e:	80          	im 0
     68f:	52          	storesp 8
     690:	73          	loadsp 12
     691:	51          	storesp 4
     692:	79          	loadsp 36
     693:	2d          	call
     694:	81          	im 1
     695:	18          	addsp 32
     696:	75          	loadsp 20
     697:	ff          	im -1
     698:	17          	addsp 28
     699:	57          	storesp 28
     69a:	57          	storesp 28
     69b:	58          	storesp 32
     69c:	80          	im 0
     69d:	76          	loadsp 24
     69e:	25          	lessthanorequal
     69f:	ff          	im -1
     6a0:	85          	im 5
     6a1:	38          	neqbranch
     6a2:	76          	loadsp 24
     6a3:	70          	loadsp 0
     6a4:	81          	im 1
     6a5:	05          	add
     6a6:	58          	storesp 32
     6a7:	33          	loadb
     6a8:	54          	storesp 16
     6a9:	80          	im 0
     6aa:	52          	storesp 8
     6ab:	73          	loadsp 12
     6ac:	51          	storesp 4
     6ad:	79          	loadsp 36
     6ae:	2d          	call
     6af:	81          	im 1
     6b0:	18          	addsp 32
     6b1:	75          	loadsp 20
     6b2:	ff          	im -1
     6b3:	17          	addsp 28
     6b4:	57          	storesp 28
     6b5:	57          	storesp 28
     6b6:	58          	storesp 32
     6b7:	75          	loadsp 20
     6b8:	80          	im 0
     6b9:	24          	lessthan
     6ba:	cc          	im -52
     6bb:	38          	neqbranch
     6bc:	fe          	im -2
     6bd:	e8          	im -24
     6be:	39          	poppcrel

000006bf <.L68>:
     6bf:	7b          	loadsp 44
     6c0:	84          	im 4
     6c1:	1d          	addsp 52
     6c2:	71          	loadsp 4
     6c3:	08          	load
     6c4:	70          	loadsp 0
     6c5:	71          	loadsp 4
     6c6:	9f          	im 31
     6c7:	2c          	ashiftright
     6c8:	59          	storesp 36
     6c9:	53          	storesp 12
     6ca:	59          	storesp 36
     6cb:	5d          	storesp 52
     6cc:	56          	storesp 24
     6cd:	80          	im 0
     6ce:	75          	loadsp 20
     6cf:	24          	lessthan
     6d0:	81          	im 1
     6d1:	91          	im 17
     6d2:	38          	neqbranch

000006d3 <.L23>:
     6d3:	75          	loadsp 20
     6d4:	7d          	loadsp 52
     6d5:	7c          	loadsp 48
     6d6:	58          	storesp 32
     6d7:	56          	storesp 24
     6d8:	54          	storesp 16
     6d9:	80          	im 0
     6da:	57          	storesp 28
     6db:	73          	loadsp 12
     6dc:	77          	loadsp 28
     6dd:	2e          	eq
     6de:	09          	not
     6df:	81          	im 1
     6e0:	06          	and
     6e1:	b6          	im 54
     6e2:	38          	neqbranch
     6e3:	b0          	im 48
     6e4:	7b          	loadsp 44
     6e5:	34          	storeb
     6e6:	02          	pushsp
     6e7:	b5          	im 53
     6e8:	05          	add
     6e9:	56          	storesp 24

000006ea <.L25>:
     6ea:	7a          	loadsp 40
     6eb:	76          	loadsp 24
     6ec:	2e          	eq
     6ed:	97          	im 23
     6ee:	38          	neqbranch

000006ef <.L71>:
     6ef:	ff          	im -1
     6f0:	16          	addsp 24
     6f1:	56          	storesp 24
     6f2:	75          	loadsp 20
     6f3:	33          	loadb
     6f4:	75          	loadsp 20
     6f5:	70          	loadsp 0
     6f6:	81          	im 1
     6f7:	05          	add
     6f8:	57          	storesp 28
     6f9:	34          	storeb
     6fa:	81          	im 1
     6fb:	17          	addsp 28
     6fc:	57          	storesp 28
     6fd:	7a          	loadsp 40
     6fe:	76          	loadsp 24
     6ff:	2e          	eq
     700:	09          	not
     701:	81          	im 1
     702:	06          	and
     703:	eb          	im -21
     704:	38          	neqbranch

00000705 <.L51>:
     705:	80          	im 0
     706:	75          	loadsp 20
     707:	34          	storeb
     708:	76          	loadsp 24
     709:	7d          	loadsp 52
     70a:	ff          	im -1
     70b:	12          	addsp 8
     70c:	57          	storesp 28
     70d:	58          	storesp 32
     70e:	56          	storesp 24
     70f:	75          	loadsp 20
     710:	80          	im 0
     711:	24          	lessthan
     712:	fe          	im -2
     713:	f3          	im -13
     714:	38          	neqbranch
     715:	fe          	im -2
     716:	8f          	im 15
     717:	39          	poppcrel

00000718 <.L57>:
     718:	8a          	im 10
     719:	52          	storesp 8
     71a:	73          	loadsp 12
     71b:	51          	storesp 4
     71c:	9f          	im 31
     71d:	d0          	im -48
     71e:	3f          	callpcrel
     71f:	80          	im 0
     720:	08          	load
     721:	80          	im 0
     722:	c7          	im -57
     723:	d4          	im -44
     724:	05          	add
     725:	33          	loadb
     726:	76          	loadsp 24
     727:	70          	loadsp 0
     728:	81          	im 1
     729:	05          	add
     72a:	58          	storesp 32
     72b:	34          	storeb
     72c:	8a          	im 10
     72d:	52          	storesp 8
     72e:	73          	loadsp 12
     72f:	51          	storesp 4
     730:	9e          	im 30
     731:	f8          	im -8
     732:	3f          	callpcrel
     733:	80          	im 0
     734:	08          	load
     735:	54          	storesp 16
     736:	80          	im 0
     737:	08          	load
     738:	80          	im 0
     739:	2e          	eq
     73a:	ff          	im -1
     73b:	ae          	im 46
     73c:	38          	neqbranch
     73d:	8a          	im 10
     73e:	52          	storesp 8
     73f:	73          	loadsp 12
     740:	51          	storesp 4
     741:	9f          	im 31
     742:	ab          	im 43
     743:	3f          	callpcrel
     744:	80          	im 0
     745:	08          	load
     746:	80          	im 0
     747:	c7          	im -57
     748:	d4          	im -44
     749:	05          	add
     74a:	33          	loadb
     74b:	76          	loadsp 24
     74c:	70          	loadsp 0
     74d:	81          	im 1
     74e:	05          	add
     74f:	58          	storesp 32
     750:	34          	storeb
     751:	8a          	im 10
     752:	52          	storesp 8
     753:	73          	loadsp 12
     754:	51          	storesp 4
     755:	9e          	im 30
     756:	d3          	im -45
     757:	3f          	callpcrel
     758:	80          	im 0
     759:	08          	load
     75a:	54          	storesp 16
     75b:	80          	im 0
     75c:	08          	load
     75d:	ff          	im -1
     75e:	b9          	im 57
     75f:	38          	neqbranch
     760:	ff          	im -1
     761:	88          	im 8
     762:	39          	poppcrel

00000763 <.L70>:
     763:	74          	loadsp 16
     764:	52          	storesp 8
     765:	76          	loadsp 24
     766:	53          	storesp 12
     767:	b4          	im 52
     768:	3d          	pushspadd
     769:	ff          	im -1
     76a:	b8          	im 56
     76b:	05          	add
     76c:	51          	storesp 4
     76d:	94          	im 20
     76e:	9a          	im 26
     76f:	3f          	callpcrel
     770:	a3          	im 35
     771:	3d          	pushspadd
     772:	08          	load
     773:	56          	storesp 24
     774:	fe          	im -2
     775:	dd          	im -35
     776:	39          	poppcrel

00000777 <Proc_5>:
     777:	80          	im 0
     778:	3d          	pushspadd
     779:	0d          	popsp
     77a:	80          	im 0
     77b:	c1          	im -63
     77c:	0b          	nop
     77d:	81          	im 1
     77e:	b4          	im 52
     77f:	bc          	im 60
     780:	34          	storeb
     781:	80          	im 0
     782:	0b          	nop
     783:	81          	im 1
     784:	b6          	im 54
     785:	98          	im 24
     786:	0c          	store
     787:	70          	loadsp 0
     788:	80          	im 0
     789:	0c          	store
     78a:	82          	im 2
     78b:	3d          	pushspadd
     78c:	0d          	popsp
     78d:	04          	poppc

0000078e <Proc_4>:
     78e:	ff          	im -1
     78f:	3d          	pushspadd
     790:	0d          	popsp
     791:	80          	im 0
     792:	0b          	nop
     793:	81          	im 1
     794:	b4          	im 52
     795:	bc          	im 60
     796:	33          	loadb
     797:	52          	storesp 8
     798:	52          	storesp 8
     799:	70          	loadsp 0
     79a:	80          	im 0
     79b:	c1          	im -63
     79c:	2e          	eq
     79d:	99          	im 25
     79e:	38          	neqbranch
     79f:	71          	loadsp 4
     7a0:	81          	im 1
     7a1:	b6          	im 54
     7a2:	98          	im 24
     7a3:	08          	load
     7a4:	07          	or
     7a5:	81          	im 1
     7a6:	b6          	im 54
     7a7:	98          	im 24
     7a8:	0c          	store
     7a9:	80          	im 0
     7aa:	c2          	im -62
     7ab:	0b          	nop
     7ac:	81          	im 1
     7ad:	b4          	im 52
     7ae:	c0          	im -64
     7af:	34          	storeb
     7b0:	70          	loadsp 0
     7b1:	80          	im 0
     7b2:	0c          	store
     7b3:	83          	im 3
     7b4:	3d          	pushspadd
     7b5:	0d          	popsp
     7b6:	04          	poppc

000007b7 <.L76>:
     7b7:	81          	im 1
     7b8:	0b          	nop
     7b9:	81          	im 1
     7ba:	b6          	im 54
     7bb:	98          	im 24
     7bc:	08          	load
     7bd:	07          	or
     7be:	81          	im 1
     7bf:	b6          	im 54
     7c0:	98          	im 24
     7c1:	0c          	store
     7c2:	80          	im 0
     7c3:	c2          	im -62
     7c4:	0b          	nop
     7c5:	81          	im 1
     7c6:	b4          	im 52
     7c7:	c0          	im -64
     7c8:	34          	storeb
     7c9:	70          	loadsp 0
     7ca:	80          	im 0
     7cb:	0c          	store
     7cc:	83          	im 3
     7cd:	3d          	pushspadd
     7ce:	0d          	popsp
     7cf:	04          	poppc

000007d0 <Proc_2>:
     7d0:	fd          	im -3
     7d1:	3d          	pushspadd
     7d2:	0d          	popsp
     7d3:	75          	loadsp 20
     7d4:	70          	loadsp 0
     7d5:	08          	load
     7d6:	8a          	im 10
     7d7:	05          	add
     7d8:	53          	storesp 12
     7d9:	53          	storesp 12

000007da <.L78>:
     7da:	81          	im 1
     7db:	b4          	im 52
     7dc:	bc          	im 60
     7dd:	33          	loadb
     7de:	51          	storesp 4
     7df:	70          	loadsp 0
     7e0:	80          	im 0
     7e1:	c1          	im -63
     7e2:	2e          	eq
     7e3:	8b          	im 11
     7e4:	38          	neqbranch
     7e5:	73          	loadsp 12
     7e6:	f3          	im -13
     7e7:	38          	neqbranch
     7e8:	70          	loadsp 0
     7e9:	80          	im 0
     7ea:	0c          	store
     7eb:	85          	im 5
     7ec:	3d          	pushspadd
     7ed:	0d          	popsp
     7ee:	04          	poppc

000007ef <.L85>:
     7ef:	ff          	im -1
     7f0:	12          	addsp 8
     7f1:	70          	loadsp 0
     7f2:	81          	im 1
     7f3:	b4          	im 52
     7f4:	b8          	im 56
     7f5:	08          	load
     7f6:	31          	sub
     7f7:	74          	loadsp 16
     7f8:	0c          	store
     7f9:	80          	im 0
     7fa:	0c          	store
     7fb:	85          	im 5
     7fc:	3d          	pushspadd
     7fd:	0d          	popsp
     7fe:	04          	poppc

000007ff <Proc_3>:
     7ff:	fc          	im -4
     800:	3d          	pushspadd
     801:	0d          	popsp
     802:	81          	im 1
     803:	b4          	im 52
     804:	c4          	im -60
     805:	08          	load
     806:	55          	storesp 20
     807:	74          	loadsp 16
     808:	80          	im 0
     809:	2e          	eq
     80a:	8c          	im 12
     80b:	38          	neqbranch
     80c:	76          	loadsp 24
     80d:	75          	loadsp 20
     80e:	08          	load
     80f:	71          	loadsp 4
     810:	0c          	store
     811:	81          	im 1
     812:	b4          	im 52
     813:	c4          	im -60
     814:	08          	load
     815:	56          	storesp 24
     816:	54          	storesp 16

00000817 <.L87>:
     817:	8c          	im 12
     818:	15          	addsp 20
     819:	53          	storesp 12
     81a:	81          	im 1
     81b:	b4          	im 52
     81c:	b8          	im 56
     81d:	08          	load
     81e:	52          	storesp 8
     81f:	8a          	im 10
     820:	51          	storesp 4
     821:	8f          	im 15
     822:	d4          	im -44
     823:	3f          	callpcrel
     824:	73          	loadsp 12
     825:	80          	im 0
     826:	0c          	store
     827:	86          	im 6
     828:	3d          	pushspadd
     829:	0d          	popsp
     82a:	04          	poppc

0000082b <Proc_1>:
     82b:	fb          	im -5
     82c:	3d          	pushspadd
     82d:	0d          	popsp
     82e:	77          	loadsp 28
     82f:	70          	loadsp 0
     830:	08          	load
     831:	56          	storesp 24
     832:	56          	storesp 24
     833:	b0          	im 48
     834:	53          	storesp 12
     835:	81          	im 1
     836:	b4          	im 52
     837:	c4          	im -60
     838:	08          	load
     839:	52          	storesp 8
     83a:	74          	loadsp 16
     83b:	51          	storesp 4
     83c:	ab          	im 43
     83d:	94          	im 20
     83e:	3f          	callpcrel
     83f:	85          	im 5
     840:	0b          	nop
     841:	8c          	im 12
     842:	17          	addsp 28
     843:	0c          	store
     844:	85          	im 5
     845:	0b          	nop
     846:	8c          	im 12
     847:	16          	addsp 24
     848:	0c          	store
     849:	75          	loadsp 20
     84a:	08          	load
     84b:	75          	loadsp 20
     84c:	0c          	store
     84d:	81          	im 1
     84e:	b4          	im 52
     84f:	c4          	im -60
     850:	08          	load
     851:	54          	storesp 16
     852:	73          	loadsp 12
     853:	80          	im 0
     854:	2e          	eq
     855:	8a          	im 10
     856:	38          	neqbranch
     857:	73          	loadsp 12
     858:	08          	load
     859:	75          	loadsp 20
     85a:	0c          	store
     85b:	81          	im 1
     85c:	b4          	im 52
     85d:	c4          	im -60
     85e:	08          	load
     85f:	54          	storesp 16

00000860 <.L90>:
     860:	8c          	im 12
     861:	14          	addsp 16
     862:	53          	storesp 12
     863:	81          	im 1
     864:	b4          	im 52
     865:	b8          	im 56
     866:	08          	load
     867:	52          	storesp 8
     868:	8a          	im 10
     869:	51          	storesp 4
     86a:	8f          	im 15
     86b:	8b          	im 11
     86c:	3f          	callpcrel
     86d:	84          	im 4
     86e:	15          	addsp 20
     86f:	08          	load
     870:	ad          	im 45
     871:	38          	neqbranch
     872:	86          	im 6
     873:	0b          	nop
     874:	8c          	im 12
     875:	16          	addsp 24
     876:	0c          	store
     877:	88          	im 8
     878:	15          	addsp 20
     879:	52          	storesp 8
     87a:	88          	im 8
     87b:	16          	addsp 24
     87c:	08          	load
     87d:	51          	storesp 4
     87e:	8e          	im 14
     87f:	97          	im 23
     880:	3f          	callpcrel
     881:	81          	im 1
     882:	b4          	im 52
     883:	c4          	im -60
     884:	08          	load
     885:	70          	loadsp 0
     886:	08          	load
     887:	76          	loadsp 24
     888:	0c          	store
     889:	54          	storesp 16
     88a:	8c          	im 12
     88b:	15          	addsp 20
     88c:	70          	loadsp 0
     88d:	54          	storesp 16
     88e:	54          	storesp 16
     88f:	8a          	im 10
     890:	52          	storesp 8
     891:	73          	loadsp 12
     892:	08          	load
     893:	51          	storesp 4
     894:	8e          	im 14
     895:	e1          	im -31
     896:	3f          	callpcrel
     897:	73          	loadsp 12
     898:	80          	im 0
     899:	0c          	store
     89a:	87          	im 7
     89b:	3d          	pushspadd
     89c:	0d          	popsp
     89d:	04          	poppc

0000089e <.L92>:
     89e:	75          	loadsp 20
     89f:	08          	load
     8a0:	54          	storesp 16
     8a1:	b0          	im 48
     8a2:	53          	storesp 12
     8a3:	73          	loadsp 12
     8a4:	52          	storesp 8
     8a5:	75          	loadsp 20
     8a6:	51          	storesp 4
     8a7:	aa          	im 42
     8a8:	a9          	im 41
     8a9:	3f          	callpcrel
     8aa:	73          	loadsp 12
     8ab:	80          	im 0
     8ac:	0c          	store
     8ad:	87          	im 7
     8ae:	3d          	pushspadd
     8af:	0d          	popsp
     8b0:	04          	poppc

000008b1 <main>:
     8b1:	d9          	im -39
     8b2:	3d          	pushspadd
     8b3:	0d          	popsp
     8b4:	b0          	im 48
     8b5:	51          	storesp 4
     8b6:	9d          	im 29
     8b7:	cf          	im -49
     8b8:	3f          	callpcrel
     8b9:	80          	im 0
     8ba:	08          	load
     8bb:	81          	im 1
     8bc:	b4          	im 52
     8bd:	b4          	im 52
     8be:	0c          	store
     8bf:	b0          	im 48
     8c0:	51          	storesp 4
     8c1:	9d          	im 29
     8c2:	c4          	im -60
     8c3:	3f          	callpcrel
     8c4:	80          	im 0
     8c5:	08          	load
     8c6:	81          	im 1
     8c7:	b4          	im 52
     8c8:	c4          	im -60
     8c9:	0c          	store
     8ca:	81          	im 1
     8cb:	b4          	im 52
     8cc:	b4          	im 52
     8cd:	08          	load
     8ce:	80          	im 0
     8cf:	08          	load
     8d0:	0c          	store
     8d1:	80          	im 0
     8d2:	0b          	nop
     8d3:	80          	im 0
     8d4:	08          	load
     8d5:	84          	im 4
     8d6:	05          	add
     8d7:	0c          	store
     8d8:	82          	im 2
     8d9:	0b          	nop
     8da:	80          	im 0
     8db:	08          	load
     8dc:	88          	im 8
     8dd:	05          	add
     8de:	0c          	store
     8df:	a8          	im 40
     8e0:	0b          	nop
     8e1:	80          	im 0
     8e2:	08          	load
     8e3:	8c          	im 12
     8e4:	05          	add
     8e5:	0c          	store
     8e6:	9f          	im 31
     8e7:	53          	storesp 12
     8e8:	80          	im 0
     8e9:	c7          	im -57
     8ea:	e0          	im -32
     8eb:	52          	storesp 8
     8ec:	80          	im 0
     8ed:	08          	load
     8ee:	90          	im 16
     8ef:	05          	add
     8f0:	51          	storesp 4
     8f1:	a9          	im 41
     8f2:	df          	im -33
     8f3:	3f          	callpcrel
     8f4:	a1          	im 33
     8f5:	3d          	pushspadd
     8f6:	5e          	storesp 56
     8f7:	9f          	im 31
     8f8:	53          	storesp 12
     8f9:	80          	im 0
     8fa:	c8          	im -56
     8fb:	80          	im 0
     8fc:	52          	storesp 8
     8fd:	7d          	loadsp 52
     8fe:	51          	storesp 4
     8ff:	a9          	im 41
     900:	d1          	im -47
     901:	3f          	callpcrel
     902:	8a          	im 10
     903:	0b          	nop
     904:	80          	im 0
     905:	f2          	im -14
     906:	f8          	im -8
     907:	0c          	store
     908:	80          	im 0
     909:	d2          	im -46
     90a:	a4          	im 36
     90b:	51          	storesp 4
     90c:	f9          	im -7
     90d:	be          	im 62
     90e:	3f          	callpcrel
     90f:	80          	im 0
     910:	c8          	im -56
     911:	a0          	im 32
     912:	51          	storesp 4
     913:	f9          	im -7
     914:	b7          	im 55
     915:	3f          	callpcrel
     916:	80          	im 0
     917:	d2          	im -46
     918:	a4          	im 36
     919:	51          	storesp 4
     91a:	f9          	im -7
     91b:	b0          	im 48
     91c:	3f          	callpcrel
     91d:	80          	im 0
     91e:	d6          	im -42
     91f:	84          	im 4
     920:	08          	load
     921:	80          	im 0
     922:	2e          	eq
     923:	89          	im 9
     924:	d3          	im -45
     925:	38          	neqbranch
     926:	80          	im 0
     927:	c8          	im -56
     928:	d0          	im -48
     929:	51          	storesp 4

0000092a <.L141>:
     92a:	f9          	im -7
     92b:	a0          	im 32
     92c:	3f          	callpcrel
     92d:	80          	im 0
     92e:	d2          	im -46
     92f:	a4          	im 36
     930:	51          	storesp 4
     931:	f9          	im -7
     932:	99          	im 25
     933:	3f          	callpcrel
     934:	80          	im 0
     935:	d6          	im -42
     936:	80          	im 0
     937:	08          	load
     938:	52          	storesp 8
     939:	80          	im 0
     93a:	c8          	im -56
     93b:	fc          	im -4
     93c:	51          	storesp 4
     93d:	f9          	im -7
     93e:	8d          	im 13
     93f:	3f          	callpcrel
     940:	80          	im 0
     941:	e6          	im -26
     942:	94          	im 20
     943:	51          	storesp 4
     944:	b2          	im 50
     945:	ff          	im -1
     946:	3f          	callpcrel
     947:	81          	im 1
     948:	0b          	nop
     949:	9a          	im 26
     94a:	3d          	pushspadd
     94b:	5e          	storesp 56
     94c:	5b          	storesp 44
     94d:	80          	im 0
     94e:	0b          	nop
     94f:	80          	im 0
     950:	d6          	im -42
     951:	80          	im 0
     952:	08          	load
     953:	25          	lessthanorequal
     954:	82          	im 2
     955:	d4          	im -44
     956:	38          	neqbranch
     957:	90          	im 16
     958:	3d          	pushspadd
     959:	5f          	storesp 60

0000095a <.L123>:
     95a:	80          	im 0
     95b:	c1          	im -63
     95c:	0b          	nop
     95d:	81          	im 1
     95e:	b4          	im 52
     95f:	bc          	im 60
     960:	34          	storeb
     961:	81          	im 1
     962:	0b          	nop
     963:	81          	im 1
     964:	b6          	im 54
     965:	98          	im 24
     966:	0c          	store
     967:	80          	im 0
     968:	c2          	im -62
     969:	0b          	nop
     96a:	81          	im 1
     96b:	b4          	im 52
     96c:	c0          	im -64
     96d:	34          	storeb
     96e:	82          	im 2
     96f:	40          	storesp 64
     970:	83          	im 3
     971:	5a          	storesp 40
     972:	9f          	im 31
     973:	53          	storesp 12
     974:	80          	im 0
     975:	c9          	im -55
     976:	ac          	im 44
     977:	52          	storesp 8
     978:	7c          	loadsp 48
     979:	51          	storesp 4
     97a:	a8          	im 40
     97b:	d6          	im -42
     97c:	3f          	callpcrel
     97d:	81          	im 1
     97e:	41          	storesp 68
     97f:	80          	im 0
     980:	7d          	loadsp 52
     981:	53          	storesp 12
     982:	7e          	loadsp 56
     983:	52          	storesp 8
     984:	56          	storesp 24
     985:	8e          	im 14
     986:	94          	im 20
     987:	3f          	callpcrel
     988:	80          	im 0
     989:	08          	load
     98a:	76          	loadsp 24
     98b:	2e          	eq
     98c:	09          	not
     98d:	81          	im 1
     98e:	06          	and
     98f:	83          	im 3
     990:	38          	neqbranch
     991:	81          	im 1
     992:	56          	storesp 24

00000993 <.L104>:
     993:	75          	loadsp 20
     994:	81          	im 1
     995:	b6          	im 54
     996:	98          	im 24
     997:	0c          	store
     998:	7f          	loadsp 60
     999:	70          	loadsp 0
     99a:	58          	storesp 32
     99b:	56          	storesp 24
     99c:	75          	loadsp 20
     99d:	83          	im 3
     99e:	25          	lessthanorequal
     99f:	a2          	im 34
     9a0:	38          	neqbranch

000009a1 <.L145>:
     9a1:	75          	loadsp 20
     9a2:	10          	addsp 0
     9a3:	10          	addsp 0
     9a4:	16          	addsp 24
     9a5:	fd          	im -3
     9a6:	05          	add
     9a7:	42          	storesp 72
     9a8:	a9          	im 41
     9a9:	3d          	pushspadd
     9aa:	ff          	im -1
     9ab:	a4          	im 36
     9ac:	05          	add
     9ad:	53          	storesp 12
     9ae:	83          	im 3
     9af:	52          	storesp 8
     9b0:	76          	loadsp 24
     9b1:	51          	storesp 4
     9b2:	8c          	im 12
     9b3:	c3          	im -61
     9b4:	3f          	callpcrel
     9b5:	7f          	loadsp 60
     9b6:	81          	im 1
     9b7:	05          	add
     9b8:	70          	loadsp 0
     9b9:	41          	storesp 68
     9ba:	70          	loadsp 0
     9bb:	58          	storesp 32
     9bc:	56          	storesp 24
     9bd:	83          	im 3
     9be:	76          	loadsp 24
     9bf:	24          	lessthan
     9c0:	e0          	im -32
     9c1:	38          	neqbranch

000009c2 <.L130>:
     9c2:	61          	loadsp 68
     9c3:	54          	storesp 16
     9c4:	75          	loadsp 20
     9c5:	53          	storesp 12
     9c6:	80          	im 0
     9c7:	e6          	im -26
     9c8:	9c          	im 28
     9c9:	52          	storesp 8
     9ca:	81          	im 1
     9cb:	b4          	im 52
     9cc:	d0          	im -48
     9cd:	51          	storesp 4
     9ce:	8c          	im 12
     9cf:	b7          	im 55
     9d0:	3f          	callpcrel
     9d1:	81          	im 1
     9d2:	b4          	im 52
     9d3:	c4          	im -60
     9d4:	08          	load
     9d5:	70          	loadsp 0
     9d6:	08          	load
     9d7:	58          	storesp 32
     9d8:	58          	storesp 32
     9d9:	b0          	im 48
     9da:	53          	storesp 12
     9db:	77          	loadsp 28
     9dc:	52          	storesp 8
     9dd:	76          	loadsp 24
     9de:	51          	storesp 4
     9df:	a7          	im 39
     9e0:	f1          	im -15
     9e1:	3f          	callpcrel
     9e2:	85          	im 5
     9e3:	0b          	nop
     9e4:	8c          	im 12
     9e5:	19          	addsp 36
     9e6:	0c          	store
     9e7:	85          	im 5
     9e8:	0b          	nop
     9e9:	8c          	im 12
     9ea:	18          	addsp 32
     9eb:	0c          	store
     9ec:	77          	loadsp 28
     9ed:	08          	load
     9ee:	77          	loadsp 28
     9ef:	0c          	store
     9f0:	81          	im 1
     9f1:	b4          	im 52
     9f2:	c4          	im -60
     9f3:	08          	load
     9f4:	56          	storesp 24
     9f5:	75          	loadsp 20
     9f6:	80          	im 0
     9f7:	2e          	eq
     9f8:	8a          	im 10
     9f9:	38          	neqbranch
     9fa:	75          	loadsp 20
     9fb:	08          	load
     9fc:	77          	loadsp 28
     9fd:	0c          	store
     9fe:	81          	im 1
     9ff:	b4          	im 52
     a00:	c4          	im -60
     a01:	08          	load
     a02:	56          	storesp 24

00000a03 <.L108>:
     a03:	8c          	im 12
     a04:	16          	addsp 24
     a05:	53          	storesp 12
     a06:	81          	im 1
     a07:	b4          	im 52
     a08:	b8          	im 56
     a09:	08          	load
     a0a:	52          	storesp 8
     a0b:	8a          	im 10
     a0c:	51          	storesp 4
     a0d:	8b          	im 11
     a0e:	e8          	im -24
     a0f:	3f          	callpcrel
     a10:	84          	im 4
     a11:	17          	addsp 28
     a12:	08          	load
     a13:	87          	im 7
     a14:	ea          	im -22
     a15:	38          	neqbranch
     a16:	86          	im 6
     a17:	0b          	nop
     a18:	8c          	im 12
     a19:	18          	addsp 32
     a1a:	0c          	store
     a1b:	88          	im 8
     a1c:	17          	addsp 28
     a1d:	52          	storesp 8
     a1e:	88          	im 8
     a1f:	18          	addsp 32
     a20:	08          	load
     a21:	51          	storesp 4
     a22:	8a          	im 10
     a23:	f3          	im -13
     a24:	3f          	callpcrel
     a25:	81          	im 1
     a26:	b4          	im 52
     a27:	c4          	im -60
     a28:	08          	load
     a29:	70          	loadsp 0
     a2a:	08          	load
     a2b:	78          	loadsp 32
     a2c:	0c          	store
     a2d:	56          	storesp 24
     a2e:	8c          	im 12
     a2f:	17          	addsp 28
     a30:	70          	loadsp 0
     a31:	54          	storesp 16
     a32:	59          	storesp 36
     a33:	8a          	im 10
     a34:	52          	storesp 8
     a35:	78          	loadsp 32
     a36:	08          	load
     a37:	51          	storesp 4
     a38:	8b          	im 11
     a39:	bd          	im 61
     a3a:	3f          	callpcrel
     a3b:	80          	im 0
     a3c:	c1          	im -63
     a3d:	0b          	nop
     a3e:	81          	im 1
     a3f:	b4          	im 52
     a40:	c0          	im -64
     a41:	33          	loadb
     a42:	57          	storesp 28
     a43:	57          	storesp 28

00000a44 <.L143>:
     a44:	76          	loadsp 24
     a45:	76          	loadsp 24
     a46:	26          	ulessthan
     a47:	a2          	im 34
     a48:	38          	neqbranch

00000a49 <.L147>:
     a49:	80          	im 0
     a4a:	c3          	im -61
     a4b:	52          	storesp 8
     a4c:	76          	loadsp 24
     a4d:	51          	storesp 4
     a4e:	8c          	im 12
     a4f:	a1          	im 33
     a50:	3f          	callpcrel
     a51:	80          	im 0
     a52:	08          	load
     a53:	61          	loadsp 68
     a54:	2e          	eq
     a55:	89          	im 9
     a56:	e4          	im -28
     a57:	38          	neqbranch
     a58:	81          	im 1
     a59:	17          	addsp 28
     a5a:	70          	loadsp 0
     a5b:	81          	im 1
     a5c:	ff          	im -1
     a5d:	06          	and
     a5e:	81          	im 1
     a5f:	b4          	im 52
     a60:	c0          	im -64
     a61:	33          	loadb
     a62:	58          	storesp 32
     a63:	58          	storesp 32
     a64:	58          	storesp 32

00000a65 <.L150>:
     a65:	75          	loadsp 20
     a66:	77          	loadsp 28
     a67:	27          	ulessthanorequal
     a68:	e0          	im -32
     a69:	38          	neqbranch

00000a6a <.L132>:
     a6a:	79          	loadsp 36
     a6b:	60          	loadsp 64
     a6c:	29          	mult
     a6d:	62          	loadsp 72
     a6e:	70          	loadsp 0
     a6f:	54          	storesp 16
     a70:	71          	loadsp 4
     a71:	53          	storesp 12
     a72:	5b          	storesp 44
     a73:	59          	storesp 36
     a74:	98          	im 24
     a75:	b4          	im 52
     a76:	3f          	callpcrel
     a77:	80          	im 0
     a78:	08          	load
     a79:	40          	storesp 64
     a7a:	78          	loadsp 32
     a7b:	7a          	loadsp 40
     a7c:	31          	sub
     a7d:	70          	loadsp 0
     a7e:	87          	im 7
     a7f:	29          	mult
     a80:	80          	im 0
     a81:	08          	load
     a82:	31          	sub
     a83:	80          	im 0
     a84:	08          	load
     a85:	8a          	im 10
     a86:	05          	add
     a87:	81          	im 1
     a88:	b4          	im 52
     a89:	bc          	im 60
     a8a:	33          	loadb
     a8b:	81          	im 1
     a8c:	b4          	im 52
     a8d:	b8          	im 56
     a8e:	08          	load
     a8f:	5e          	storesp 56
     a90:	5b          	storesp 44
     a91:	52          	storesp 8
     a92:	5a          	storesp 40
     a93:	56          	storesp 24

00000a94 <.L118>:
     a94:	77          	loadsp 28
     a95:	80          	im 0
     a96:	c1          	im -63
     a97:	2e          	eq
     a98:	89          	im 9
     a99:	ce          	im -50
     a9a:	38          	neqbranch
     a9b:	7b          	loadsp 44
     a9c:	f7          	im -9
     a9d:	38          	neqbranch
     a9e:	81          	im 1
     a9f:	1b          	addsp 44
     aa0:	5b          	storesp 44
     aa1:	80          	im 0
     aa2:	d6          	im -42
     aa3:	80          	im 0
     aa4:	08          	load
     aa5:	7b          	loadsp 44
     aa6:	25          	lessthanorequal
     aa7:	fd          	im -3
     aa8:	b1          	im 49
     aa9:	38          	neqbranch

00000aaa <.L128>:
     aaa:	81          	im 1
     aab:	b4          	im 52
     aac:	ac          	im 44
     aad:	51          	storesp 4
     aae:	b0          	im 48
     aaf:	95          	im 21
     ab0:	3f          	callpcrel
     ab1:	80          	im 0
     ab2:	c9          	im -55
     ab3:	cc          	im -52
     ab4:	51          	storesp 4
     ab5:	f6          	im -10
     ab6:	95          	im 21
     ab7:	3f          	callpcrel
     ab8:	80          	im 0
     ab9:	d2          	im -46
     aba:	a4          	im 36
     abb:	51          	storesp 4
     abc:	f6          	im -10
     abd:	8e          	im 14
     abe:	3f          	callpcrel
     abf:	80          	im 0
     ac0:	c9          	im -55
     ac1:	dc          	im -36
     ac2:	51          	storesp 4
     ac3:	f6          	im -10
     ac4:	87          	im 7
     ac5:	3f          	callpcrel
     ac6:	80          	im 0
     ac7:	d2          	im -46
     ac8:	a4          	im 36
     ac9:	51          	storesp 4
     aca:	f6          	im -10
     acb:	80          	im 0
     acc:	3f          	callpcrel
     acd:	81          	im 1
     ace:	b4          	im 52
     acf:	b8          	im 56
     ad0:	08          	load
     ad1:	52          	storesp 8
     ad2:	80          	im 0
     ad3:	ca          	im -54
     ad4:	94          	im 20
     ad5:	51          	storesp 4
     ad6:	f5          	im -11
     ad7:	f4          	im -12
     ad8:	3f          	callpcrel
     ad9:	85          	im 5
     ada:	52          	storesp 8
     adb:	80          	im 0
     adc:	ca          	im -54
     add:	b0          	im 48
     ade:	51          	storesp 4
     adf:	f5          	im -11
     ae0:	eb          	im -21
     ae1:	3f          	callpcrel
     ae2:	81          	im 1
     ae3:	b6          	im 54
     ae4:	98          	im 24
     ae5:	08          	load
     ae6:	52          	storesp 8
     ae7:	80          	im 0
     ae8:	ca          	im -54
     ae9:	cc          	im -52
     aea:	51          	storesp 4
     aeb:	f5          	im -11
     aec:	df          	im -33
     aed:	3f          	callpcrel
     aee:	81          	im 1
     aef:	52          	storesp 8
     af0:	80          	im 0
     af1:	ca          	im -54
     af2:	b0          	im 48
     af3:	51          	storesp 4
     af4:	f5          	im -11
     af5:	d6          	im -42
     af6:	3f          	callpcrel
     af7:	81          	im 1
     af8:	b4          	im 52
     af9:	bc          	im 60
     afa:	33          	loadb
     afb:	52          	storesp 8
     afc:	80          	im 0
     afd:	ca          	im -54
     afe:	e8          	im -24
     aff:	51          	storesp 4
     b00:	f5          	im -11
     b01:	ca          	im -54
     b02:	3f          	callpcrel
     b03:	80          	im 0
     b04:	c1          	im -63
     b05:	52          	storesp 8
     b06:	80          	im 0
     b07:	cb          	im -53
     b08:	84          	im 4
     b09:	51          	storesp 4
     b0a:	f5          	im -11
     b0b:	c0          	im -64
     b0c:	3f          	callpcrel
     b0d:	81          	im 1
     b0e:	b4          	im 52
     b0f:	c0          	im -64
     b10:	33          	loadb
     b11:	52          	storesp 8
     b12:	80          	im 0
     b13:	cb          	im -53
     b14:	a0          	im 32
     b15:	51          	storesp 4
     b16:	f5          	im -11
     b17:	b4          	im 52
     b18:	3f          	callpcrel
     b19:	80          	im 0
     b1a:	c2          	im -62
     b1b:	52          	storesp 8
     b1c:	80          	im 0
     b1d:	cb          	im -53
     b1e:	84          	im 4
     b1f:	51          	storesp 4
     b20:	f5          	im -11
     b21:	aa          	im 42
     b22:	3f          	callpcrel
     b23:	81          	im 1
     b24:	b4          	im 52
     b25:	f0          	im -16
     b26:	08          	load
     b27:	52          	storesp 8
     b28:	80          	im 0
     b29:	cb          	im -53
     b2a:	bc          	im 60
     b2b:	51          	storesp 4
     b2c:	f5          	im -11
     b2d:	9e          	im 30
     b2e:	3f          	callpcrel
     b2f:	87          	im 7
     b30:	52          	storesp 8
     b31:	80          	im 0
     b32:	ca          	im -54
     b33:	b0          	im 48
     b34:	51          	storesp 4
     b35:	f5          	im -11
     b36:	95          	im 21
     b37:	3f          	callpcrel
     b38:	80          	im 0
     b39:	f2          	im -14
     b3a:	f8          	im -8
     b3b:	08          	load
     b3c:	52          	storesp 8
     b3d:	80          	im 0
     b3e:	cb          	im -53
     b3f:	d8          	im -40
     b40:	51          	storesp 4
     b41:	f5          	im -11
     b42:	89          	im 9
     b43:	3f          	callpcrel
     b44:	80          	im 0
     b45:	cb          	im -53
     b46:	f4          	im -12
     b47:	51          	storesp 4
     b48:	f5          	im -11
     b49:	82          	im 2
     b4a:	3f          	callpcrel
     b4b:	80          	im 0
     b4c:	cc          	im -52
     b4d:	a0          	im 32
     b4e:	51          	storesp 4
     b4f:	f4          	im -12
     b50:	fb          	im -5
     b51:	3f          	callpcrel
     b52:	81          	im 1
     b53:	b4          	im 52
     b54:	c4          	im -60
     b55:	08          	load
     b56:	70          	loadsp 0
     b57:	08          	load
     b58:	53          	storesp 12
     b59:	5a          	storesp 40
     b5a:	80          	im 0
     b5b:	cc          	im -52
     b5c:	ac          	im 44
     b5d:	51          	storesp 4
     b5e:	f4          	im -12
     b5f:	ec          	im -20
     b60:	3f          	callpcrel
     b61:	80          	im 0
     b62:	cc          	im -52
     b63:	c8          	im -56
     b64:	51          	storesp 4
     b65:	f4          	im -12
     b66:	e5          	im -27
     b67:	3f          	callpcrel
     b68:	81          	im 1
     b69:	b4          	im 52
     b6a:	c4          	im -60
     b6b:	08          	load
     b6c:	84          	im 4
     b6d:	11          	addsp 4
     b6e:	08          	load
     b6f:	53          	storesp 12
     b70:	56          	storesp 24
     b71:	80          	im 0
     b72:	cc          	im -52
     b73:	fc          	im -4
     b74:	51          	storesp 4
     b75:	f4          	im -12
     b76:	d5          	im -43
     b77:	3f          	callpcrel
     b78:	80          	im 0
     b79:	52          	storesp 8
     b7a:	80          	im 0
     b7b:	ca          	im -54
     b7c:	b0          	im 48
     b7d:	51          	storesp 4
     b7e:	f4          	im -12
     b7f:	cc          	im -52
     b80:	3f          	callpcrel
     b81:	81          	im 1
     b82:	b4          	im 52
     b83:	c4          	im -60
     b84:	08          	load
     b85:	88          	im 8
     b86:	11          	addsp 4
     b87:	08          	load
     b88:	53          	storesp 12
     b89:	58          	storesp 32
     b8a:	80          	im 0
     b8b:	cd          	im -51
     b8c:	98          	im 24
     b8d:	51          	storesp 4
     b8e:	f4          	im -12
     b8f:	bc          	im 60
     b90:	3f          	callpcrel
     b91:	82          	im 2
     b92:	52          	storesp 8
     b93:	80          	im 0
     b94:	ca          	im -54
     b95:	b0          	im 48
     b96:	51          	storesp 4
     b97:	f4          	im -12
     b98:	b3          	im 51
     b99:	3f          	callpcrel
     b9a:	81          	im 1
     b9b:	b4          	im 52
     b9c:	c4          	im -60
     b9d:	08          	load
     b9e:	8c          	im 12
     b9f:	11          	addsp 4
     ba0:	08          	load
     ba1:	53          	storesp 12
     ba2:	57          	storesp 28
     ba3:	80          	im 0
     ba4:	cd          	im -51
     ba5:	b4          	im 52
     ba6:	51          	storesp 4
     ba7:	f4          	im -12
     ba8:	a3          	im 35
     ba9:	3f          	callpcrel
     baa:	91          	im 17
     bab:	52          	storesp 8
     bac:	80          	im 0
     bad:	ca          	im -54
     bae:	b0          	im 48
     baf:	51          	storesp 4
     bb0:	f4          	im -12
     bb1:	9a          	im 26
     bb2:	3f          	callpcrel
     bb3:	81          	im 1
     bb4:	b4          	im 52
     bb5:	c4          	im -60
     bb6:	08          	load
     bb7:	90          	im 16
     bb8:	05          	add
     bb9:	52          	storesp 8
     bba:	80          	im 0
     bbb:	cd          	im -51
     bbc:	d0          	im -48
     bbd:	51          	storesp 4
     bbe:	f4          	im -12
     bbf:	8c          	im 12
     bc0:	3f          	callpcrel
     bc1:	80          	im 0
     bc2:	cd          	im -51
     bc3:	ec          	im -20
     bc4:	51          	storesp 4
     bc5:	f4          	im -12
     bc6:	85          	im 5
     bc7:	3f          	callpcrel
     bc8:	80          	im 0
     bc9:	ce          	im -50
     bca:	a4          	im 36
     bcb:	51          	storesp 4
     bcc:	f3          	im -13
     bcd:	fe          	im -2
     bce:	3f          	callpcrel
     bcf:	81          	im 1
     bd0:	b4          	im 52
     bd1:	b4          	im 52
     bd2:	08          	load
     bd3:	70          	loadsp 0
     bd4:	08          	load
     bd5:	53          	storesp 12
     bd6:	5f          	storesp 60
     bd7:	80          	im 0
     bd8:	cc          	im -52
     bd9:	ac          	im 44
     bda:	51          	storesp 4
     bdb:	f3          	im -13
     bdc:	ef          	im -17
     bdd:	3f          	callpcrel
     bde:	80          	im 0
     bdf:	ce          	im -50
     be0:	b8          	im 56
     be1:	51          	storesp 4
     be2:	f3          	im -13
     be3:	e8          	im -24
     be4:	3f          	callpcrel
     be5:	81          	im 1
     be6:	b4          	im 52
     be7:	b4          	im 52
     be8:	08          	load
     be9:	84          	im 4
     bea:	11          	addsp 4
     beb:	08          	load
     bec:	53          	storesp 12
     bed:	5b          	storesp 44
     bee:	80          	im 0
     bef:	cc          	im -52
     bf0:	fc          	im -4
     bf1:	51          	storesp 4
     bf2:	f3          	im -13
     bf3:	d8          	im -40
     bf4:	3f          	callpcrel
     bf5:	80          	im 0
     bf6:	52          	storesp 8
     bf7:	80          	im 0
     bf8:	ca          	im -54
     bf9:	b0          	im 48
     bfa:	51          	storesp 4
     bfb:	f3          	im -13
     bfc:	cf          	im -49
     bfd:	3f          	callpcrel
     bfe:	81          	im 1
     bff:	b4          	im 52
     c00:	b4          	im 52
     c01:	08          	load
     c02:	88          	im 8
     c03:	11          	addsp 4
     c04:	08          	load
     c05:	53          	storesp 12
     c06:	5c          	storesp 48
     c07:	80          	im 0
     c08:	cd          	im -51
     c09:	98          	im 24
     c0a:	51          	storesp 4
     c0b:	f3          	im -13
     c0c:	bf          	im 63
     c0d:	3f          	callpcrel
     c0e:	81          	im 1
     c0f:	52          	storesp 8
     c10:	80          	im 0
     c11:	ca          	im -54
     c12:	b0          	im 48
     c13:	51          	storesp 4
     c14:	f3          	im -13
     c15:	b6          	im 54
     c16:	3f          	callpcrel
     c17:	81          	im 1
     c18:	b4          	im 52
     c19:	b4          	im 52
     c1a:	08          	load
     c1b:	8c          	im 12
     c1c:	11          	addsp 4
     c1d:	08          	load
     c1e:	53          	storesp 12
     c1f:	5a          	storesp 40
     c20:	80          	im 0
     c21:	cd          	im -51
     c22:	b4          	im 52
     c23:	51          	storesp 4
     c24:	f3          	im -13
     c25:	a6          	im 38
     c26:	3f          	callpcrel
     c27:	92          	im 18
     c28:	52          	storesp 8
     c29:	80          	im 0
     c2a:	ca          	im -54
     c2b:	b0          	im 48
     c2c:	51          	storesp 4
     c2d:	f3          	im -13
     c2e:	9d          	im 29
     c2f:	3f          	callpcrel
     c30:	81          	im 1
     c31:	b4          	im 52
     c32:	b4          	im 52
     c33:	08          	load
     c34:	90          	im 16
     c35:	05          	add
     c36:	52          	storesp 8
     c37:	80          	im 0
     c38:	cd          	im -51
     c39:	d0          	im -48
     c3a:	51          	storesp 4
     c3b:	f3          	im -13
     c3c:	8f          	im 15
     c3d:	3f          	callpcrel
     c3e:	80          	im 0
     c3f:	cd          	im -51
     c40:	ec          	im -20
     c41:	51          	storesp 4
     c42:	f3          	im -13
     c43:	88          	im 8
     c44:	3f          	callpcrel
     c45:	7f          	loadsp 60
     c46:	52          	storesp 8
     c47:	80          	im 0
     c48:	ce          	im -50
     c49:	f8          	im -8
     c4a:	51          	storesp 4
     c4b:	f2          	im -14
     c4c:	ff          	im -1
     c4d:	3f          	callpcrel
     c4e:	85          	im 5
     c4f:	52          	storesp 8
     c50:	80          	im 0
     c51:	ca          	im -54
     c52:	b0          	im 48
     c53:	51          	storesp 4
     c54:	f2          	im -14
     c55:	f6          	im -10
     c56:	3f          	callpcrel
     c57:	78          	loadsp 32
     c58:	52          	storesp 8
     c59:	80          	im 0
     c5a:	cf          	im -49
     c5b:	94          	im 20
     c5c:	51          	storesp 4
     c5d:	f2          	im -14
     c5e:	ed          	im -19
     c5f:	3f          	callpcrel
     c60:	8d          	im 13
     c61:	52          	storesp 8
     c62:	80          	im 0
     c63:	ca          	im -54
     c64:	b0          	im 48
     c65:	51          	storesp 4
     c66:	f2          	im -14
     c67:	e4          	im -28
     c68:	3f          	callpcrel
     c69:	61          	loadsp 68
     c6a:	52          	storesp 8
     c6b:	80          	im 0
     c6c:	cf          	im -49
     c6d:	b0          	im 48
     c6e:	51          	storesp 4
     c6f:	f2          	im -14
     c70:	db          	im -37
     c71:	3f          	callpcrel
     c72:	87          	im 7
     c73:	52          	storesp 8
     c74:	80          	im 0
     c75:	ca          	im -54
     c76:	b0          	im 48
     c77:	51          	storesp 4
     c78:	f2          	im -14
     c79:	d2          	im -46
     c7a:	3f          	callpcrel
     c7b:	60          	loadsp 64
     c7c:	52          	storesp 8
     c7d:	80          	im 0
     c7e:	cf          	im -49
     c7f:	cc          	im -52
     c80:	51          	storesp 4
     c81:	f2          	im -14
     c82:	c9          	im -55
     c83:	3f          	callpcrel
     c84:	81          	im 1
     c85:	52          	storesp 8
     c86:	80          	im 0
     c87:	ca          	im -54
     c88:	b0          	im 48
     c89:	51          	storesp 4
     c8a:	f2          	im -14
     c8b:	c0          	im -64
     c8c:	3f          	callpcrel
     c8d:	7d          	loadsp 52
     c8e:	52          	storesp 8
     c8f:	80          	im 0
     c90:	cf          	im -49
     c91:	e8          	im -24
     c92:	51          	storesp 4
     c93:	f2          	im -14
     c94:	b7          	im 55
     c95:	3f          	callpcrel
     c96:	80          	im 0
     c97:	d0          	im -48
     c98:	84          	im 4
     c99:	51          	storesp 4
     c9a:	f2          	im -14
     c9b:	b0          	im 48
     c9c:	3f          	callpcrel
     c9d:	7c          	loadsp 48
     c9e:	52          	storesp 8
     c9f:	80          	im 0
     ca0:	d0          	im -48
     ca1:	bc          	im 60
     ca2:	51          	storesp 4
     ca3:	f2          	im -14
     ca4:	a7          	im 39
     ca5:	3f          	callpcrel
     ca6:	80          	im 0
     ca7:	d0          	im -48
     ca8:	d8          	im -40
     ca9:	51          	storesp 4
     caa:	f2          	im -14
     cab:	a0          	im 32
     cac:	3f          	callpcrel
     cad:	80          	im 0
     cae:	d2          	im -46
     caf:	a4          	im 36
     cb0:	51          	storesp 4
     cb1:	f2          	im -14
     cb2:	99          	im 25
     cb3:	3f          	callpcrel
     cb4:	81          	im 1
     cb5:	b4          	im 52
     cb6:	ac          	im 44
     cb7:	08          	load
     cb8:	81          	im 1
     cb9:	b4          	im 52
     cba:	b0          	im 48
     cbb:	08          	load
     cbc:	80          	im 0
     cbd:	e6          	im -26
     cbe:	94          	im 20
     cbf:	08          	load
     cc0:	80          	im 0
     cc1:	e6          	im -26
     cc2:	98          	im 24
     cc3:	08          	load
     cc4:	72          	loadsp 8
     cc5:	71          	loadsp 4
     cc6:	31          	sub
     cc7:	70          	loadsp 0
     cc8:	74          	loadsp 16
     cc9:	26          	ulessthan
     cca:	75          	loadsp 20
     ccb:	74          	loadsp 16
     ccc:	31          	sub
     ccd:	70          	loadsp 0
     cce:	72          	loadsp 8
     ccf:	31          	sub
     cd0:	80          	im 0
     cd1:	e6          	im -26
     cd2:	8c          	im 12
     cd3:	0c          	store
     cd4:	44          	storesp 80
     cd5:	44          	storesp 80
     cd6:	80          	im 0
     cd7:	e6          	im -26
     cd8:	90          	im 16
     cd9:	0c          	store
     cda:	80          	im 0
     cdb:	e6          	im -26
     cdc:	90          	im 16
     cdd:	08          	load
     cde:	56          	storesp 24
     cdf:	80          	im 0
     ce0:	d1          	im -47
     ce1:	90          	im 16
     ce2:	55          	storesp 20
     ce3:	5c          	storesp 48
     ce4:	59          	storesp 36
     ce5:	57          	storesp 28
     ce6:	58          	storesp 32
     ce7:	f1          	im -15
     ce8:	e3          	im -29
     ce9:	3f          	callpcrel
     cea:	80          	im 0
     ceb:	e6          	im -26
     cec:	8c          	im 12
     ced:	08          	load
     cee:	56          	storesp 24
     cef:	80          	im 0
     cf0:	76          	loadsp 24
     cf1:	25          	lessthanorequal
     cf2:	82          	im 2
     cf3:	a3          	im 35
     cf4:	38          	neqbranch

00000cf5 <.L125>:
     cf5:	80          	im 0
     cf6:	d6          	im -42
     cf7:	80          	im 0
     cf8:	08          	load
     cf9:	70          	loadsp 0
     cfa:	71          	loadsp 4
     cfb:	9f          	im 31
     cfc:	2c          	ashiftright
     cfd:	9a          	im 26
     cfe:	3d          	pushspadd
     cff:	53          	storesp 12
     d00:	56          	storesp 24
     d01:	56          	storesp 24
     d02:	80          	im 0
     d03:	e6          	im -26
     d04:	8c          	im 12
     d05:	08          	load
     d06:	80          	im 0
     d07:	e6          	im -26
     d08:	90          	im 16
     d09:	08          	load
     d0a:	41          	storesp 68
     d0b:	53          	storesp 12
     d0c:	7f          	loadsp 60
     d0d:	54          	storesp 16
     d0e:	70          	loadsp 0
     d0f:	52          	storesp 8
     d10:	5a          	storesp 40
     d11:	89          	im 9
     d12:	eb          	im -21
     d13:	3f          	callpcrel
     d14:	66          	loadsp 88
     d15:	68          	loadsp 96
     d16:	5f          	storesp 60
     d17:	80          	im 0
     d18:	e5          	im -27
     d19:	fc          	im -4
     d1a:	0c          	store
     d1b:	7d          	loadsp 52
     d1c:	80          	im 0
     d1d:	e6          	im -26
     d1e:	80          	im 0
     d1f:	0c          	store
     d20:	80          	im 0
     d21:	d6          	im -42
     d22:	80          	im 0
     d23:	08          	load
     d24:	70          	loadsp 0
     d25:	9f          	im 31
     d26:	2c          	ashiftright
     d27:	58          	storesp 32
     d28:	56          	storesp 24
     d29:	80          	im 0
     d2a:	58          	storesp 32
     d2b:	bd          	im 61
     d2c:	84          	im 4
     d2d:	c0          	im -64
     d2e:	78          	loadsp 32
     d2f:	55          	storesp 20
     d30:	55          	storesp 20
     d31:	76          	loadsp 24
     d32:	52          	storesp 8
     d33:	75          	loadsp 20
     d34:	53          	storesp 12
     d35:	79          	loadsp 36
     d36:	51          	storesp 4
     d37:	87          	im 7
     d38:	d1          	im -47
     d39:	3f          	callpcrel
     d3a:	95          	im 21
     d3b:	3d          	pushspadd
     d3c:	80          	im 0
     d3d:	e6          	im -26
     d3e:	8c          	im 12
     d3f:	08          	load
     d40:	80          	im 0
     d41:	e6          	im -26
     d42:	90          	im 16
     d43:	08          	load
     d44:	41          	storesp 68
     d45:	55          	storesp 20
     d46:	7f          	loadsp 60
     d47:	56          	storesp 24
     d48:	67          	loadsp 92
     d49:	69          	loadsp 100
     d4a:	40          	storesp 64
     d4b:	53          	storesp 12
     d4c:	7e          	loadsp 56
     d4d:	54          	storesp 16
     d4e:	70          	loadsp 0
     d4f:	52          	storesp 8
     d50:	5c          	storesp 48
     d51:	89          	im 9
     d52:	ab          	im 43
     d53:	3f          	callpcrel
     d54:	64          	loadsp 80
     d55:	66          	loadsp 88
     d56:	5e          	storesp 56
     d57:	80          	im 0
     d58:	e6          	im -26
     d59:	84          	im 4
     d5a:	0c          	store
     d5b:	7c          	loadsp 48
     d5c:	80          	im 0
     d5d:	e6          	im -26
     d5e:	88          	im 8
     d5f:	0c          	store
     d60:	80          	im 0
     d61:	d6          	im -42
     d62:	80          	im 0
     d63:	08          	load
     d64:	70          	loadsp 0
     d65:	9f          	im 31
     d66:	2c          	ashiftright
     d67:	40          	storesp 64
     d68:	58          	storesp 32
     d69:	80          	im 0
     d6a:	57          	storesp 28
     d6b:	83          	im 3
     d6c:	dc          	im -36
     d6d:	eb          	im -21
     d6e:	94          	im 20
     d6f:	80          	im 0
     d70:	77          	loadsp 28
     d71:	55          	storesp 20
     d72:	55          	storesp 20
     d73:	7e          	loadsp 56
     d74:	52          	storesp 8
     d75:	77          	loadsp 28
     d76:	53          	storesp 12
     d77:	7b          	loadsp 44
     d78:	51          	storesp 4
     d79:	87          	im 7
     d7a:	8f          	im 15
     d7b:	3f          	callpcrel
     d7c:	64          	loadsp 80
     d7d:	66          	loadsp 88
     d7e:	5d          	storesp 52
     d7f:	5b          	storesp 44
     d80:	80          	im 0
     d81:	5e          	storesp 56
     d82:	8d          	im 13
     d83:	dd          	im -35
     d84:	7e          	loadsp 56
     d85:	55          	storesp 20
     d86:	55          	storesp 20
     d87:	80          	im 0
     d88:	e6          	im -26
     d89:	8c          	im 12
     d8a:	08          	load
     d8b:	80          	im 0
     d8c:	e6          	im -26
     d8d:	90          	im 16
     d8e:	08          	load
     d8f:	59          	storesp 36
     d90:	52          	storesp 8
     d91:	77          	loadsp 28
     d92:	53          	storesp 12
     d93:	79          	loadsp 36
     d94:	51          	storesp 4
     d95:	86          	im 6
     d96:	f3          	im -13
     d97:	3f          	callpcrel
     d98:	66          	loadsp 88
     d99:	68          	loadsp 96
     d9a:	40          	storesp 64
     d9b:	54          	storesp 16
     d9c:	7e          	loadsp 56
     d9d:	55          	storesp 20
     d9e:	7a          	loadsp 40
     d9f:	52          	storesp 8
     da0:	7b          	loadsp 44
     da1:	53          	storesp 12
     da2:	a9          	im 41
     da3:	3d          	pushspadd
     da4:	ff          	im -1
     da5:	a8          	im 40
     da6:	05          	add
     da7:	51          	storesp 4
     da8:	88          	im 8
     da9:	d4          	im -44
     daa:	3f          	callpcrel
     dab:	62          	loadsp 72
     dac:	64          	loadsp 80
     dad:	5e          	storesp 56
     dae:	81          	im 1
     daf:	b4          	im 52
     db0:	c8          	im -56
     db1:	0c          	store
     db2:	7c          	loadsp 48
     db3:	81          	im 1
     db4:	b4          	im 52
     db5:	cc          	im -52
     db6:	0c          	store
     db7:	80          	im 0
     db8:	d1          	im -47
     db9:	a0          	im 32
     dba:	51          	storesp 4
     dbb:	f0          	im -16
     dbc:	8f          	im 15
     dbd:	3f          	callpcrel
     dbe:	80          	im 0
     dbf:	e6          	im -26
     dc0:	80          	im 0
     dc1:	08          	load
     dc2:	52          	storesp 8
     dc3:	80          	im 0
     dc4:	d1          	im -47
     dc5:	d0          	im -48
     dc6:	51          	storesp 4
     dc7:	f0          	im -16
     dc8:	83          	im 3
     dc9:	3f          	callpcrel
     dca:	80          	im 0
     dcb:	d1          	im -47
     dcc:	d8          	im -40
     dcd:	51          	storesp 4
     dce:	ef          	im -17
     dcf:	fc          	im -4
     dd0:	3f          	callpcrel
     dd1:	80          	im 0
     dd2:	e6          	im -26
     dd3:	88          	im 8
     dd4:	08          	load
     dd5:	52          	storesp 8
     dd6:	80          	im 0
     dd7:	d1          	im -47
     dd8:	d0          	im -48
     dd9:	51          	storesp 4
     dda:	ef          	im -17
     ddb:	f0          	im -16
     ddc:	3f          	callpcrel
     ddd:	81          	im 1
     dde:	b4          	im 52
     ddf:	cc          	im -52
     de0:	08          	load
     de1:	52          	storesp 8
     de2:	80          	im 0
     de3:	d2          	im -46
     de4:	88          	im 8
     de5:	51          	storesp 4
     de6:	ef          	im -17
     de7:	e4          	im -28
     de8:	3f          	callpcrel
     de9:	80          	im 0
     dea:	d2          	im -46
     deb:	a4          	im 36
     dec:	51          	storesp 4
     ded:	ef          	im -17
     dee:	dd          	im -35
     def:	3f          	callpcrel
     df0:	80          	im 0
     df1:	0b          	nop
     df2:	80          	im 0
     df3:	0c          	store
     df4:	a9          	im 41
     df5:	3d          	pushspadd
     df6:	0d          	popsp
     df7:	04          	poppc

00000df8 <.L96>:
     df8:	80          	im 0
     df9:	d2          	im -46
     dfa:	a8          	im 40
     dfb:	51          	storesp 4
     dfc:	f6          	im -10
     dfd:	ac          	im 44
     dfe:	39          	poppcrel

00000dff <.L110>:
     dff:	77          	loadsp 28
     e00:	08          	load
     e01:	57          	storesp 28
     e02:	b0          	im 48
     e03:	53          	storesp 12
     e04:	76          	loadsp 24
     e05:	52          	storesp 8
     e06:	77          	loadsp 28
     e07:	51          	storesp 4
     e08:	9f          	im 31
     e09:	c8          	im -56
     e0a:	3f          	callpcrel
     e0b:	80          	im 0
     e0c:	c1          	im -63
     e0d:	0b          	nop
     e0e:	81          	im 1
     e0f:	b4          	im 52
     e10:	c0          	im -64
     e11:	33          	loadb
     e12:	57          	storesp 28
     e13:	57          	storesp 28
     e14:	f8          	im -8
     e15:	ae          	im 46
     e16:	39          	poppcrel

00000e17 <.L149>:
     e17:	75          	loadsp 20
     e18:	8a          	im 10
     e19:	38          	neqbranch
     e1a:	80          	im 0
     e1b:	e6          	im -26
     e1c:	90          	im 16
     e1d:	08          	load
     e1e:	81          	im 1
     e1f:	26          	ulessthan
     e20:	fd          	im -3
     e21:	d3          	im -45
     e22:	38          	neqbranch

00000e23 <.L126>:
     e23:	80          	im 0
     e24:	d2          	im -46
     e25:	d8          	im -40
     e26:	51          	storesp 4
     e27:	ef          	im -17
     e28:	a3          	im 35
     e29:	3f          	callpcrel
     e2a:	80          	im 0
     e2b:	d3          	im -45
     e2c:	90          	im 16
     e2d:	51          	storesp 4
     e2e:	ef          	im -17
     e2f:	9c          	im 28
     e30:	3f          	callpcrel
     e31:	80          	im 0
     e32:	d2          	im -46
     e33:	a4          	im 36
     e34:	51          	storesp 4
     e35:	ef          	im -17
     e36:	95          	im 21
     e37:	3f          	callpcrel
     e38:	80          	im 0
     e39:	d6          	im -42
     e3a:	80          	im 0
     e3b:	08          	load
     e3c:	70          	loadsp 0
     e3d:	71          	loadsp 4
     e3e:	9f          	im 31
     e3f:	2c          	ashiftright
     e40:	9a          	im 26
     e41:	3d          	pushspadd
     e42:	53          	storesp 12
     e43:	56          	storesp 24
     e44:	56          	storesp 24
     e45:	80          	im 0
     e46:	e6          	im -26
     e47:	8c          	im 12
     e48:	08          	load
     e49:	80          	im 0
     e4a:	e6          	im -26
     e4b:	90          	im 16
     e4c:	08          	load
     e4d:	41          	storesp 68
     e4e:	53          	storesp 12
     e4f:	7f          	loadsp 60
     e50:	54          	storesp 16
     e51:	70          	loadsp 0
     e52:	52          	storesp 8
     e53:	5a          	storesp 40
     e54:	87          	im 7
     e55:	a8          	im 40
     e56:	3f          	callpcrel
     e57:	66          	loadsp 88
     e58:	68          	loadsp 96
     e59:	5f          	storesp 60
     e5a:	80          	im 0
     e5b:	e5          	im -27
     e5c:	fc          	im -4
     e5d:	0c          	store
     e5e:	7d          	loadsp 52
     e5f:	80          	im 0
     e60:	e6          	im -26
     e61:	80          	im 0
     e62:	0c          	store
     e63:	80          	im 0
     e64:	d6          	im -42
     e65:	80          	im 0
     e66:	08          	load
     e67:	70          	loadsp 0
     e68:	9f          	im 31
     e69:	2c          	ashiftright
     e6a:	58          	storesp 32
     e6b:	56          	storesp 24
     e6c:	80          	im 0
     e6d:	58          	storesp 32
     e6e:	bd          	im 61
     e6f:	84          	im 4
     e70:	c0          	im -64
     e71:	78          	loadsp 32
     e72:	55          	storesp 20
     e73:	55          	storesp 20
     e74:	76          	loadsp 24
     e75:	52          	storesp 8
     e76:	75          	loadsp 20
     e77:	53          	storesp 12
     e78:	79          	loadsp 36
     e79:	51          	storesp 4
     e7a:	85          	im 5
     e7b:	8e          	im 14
     e7c:	3f          	callpcrel
     e7d:	95          	im 21
     e7e:	3d          	pushspadd
     e7f:	80          	im 0
     e80:	e6          	im -26
     e81:	8c          	im 12
     e82:	08          	load
     e83:	80          	im 0
     e84:	e6          	im -26
     e85:	90          	im 16
     e86:	08          	load
     e87:	41          	storesp 68
     e88:	55          	storesp 20
     e89:	7f          	loadsp 60
     e8a:	56          	storesp 24
     e8b:	67          	loadsp 92
     e8c:	69          	loadsp 100
     e8d:	40          	storesp 64
     e8e:	53          	storesp 12
     e8f:	7e          	loadsp 56
     e90:	54          	storesp 16
     e91:	70          	loadsp 0
     e92:	52          	storesp 8
     e93:	5c          	storesp 48
     e94:	86          	im 6
     e95:	e8          	im -24
     e96:	3f          	callpcrel
     e97:	64          	loadsp 80
     e98:	66          	loadsp 88
     e99:	5e          	storesp 56
     e9a:	80          	im 0
     e9b:	e6          	im -26
     e9c:	84          	im 4
     e9d:	0c          	store
     e9e:	7c          	loadsp 48
     e9f:	80          	im 0
     ea0:	e6          	im -26
     ea1:	88          	im 8
     ea2:	0c          	store
     ea3:	80          	im 0
     ea4:	d6          	im -42
     ea5:	80          	im 0
     ea6:	08          	load
     ea7:	70          	loadsp 0
     ea8:	9f          	im 31
     ea9:	2c          	ashiftright
     eaa:	40          	storesp 64
     eab:	58          	storesp 32
     eac:	80          	im 0
     ead:	57          	storesp 28
     eae:	83          	im 3
     eaf:	dc          	im -36
     eb0:	eb          	im -21
     eb1:	94          	im 20
     eb2:	80          	im 0
     eb3:	77          	loadsp 28
     eb4:	55          	storesp 20
     eb5:	55          	storesp 20
     eb6:	7e          	loadsp 56
     eb7:	52          	storesp 8
     eb8:	77          	loadsp 28
     eb9:	53          	storesp 12
     eba:	7b          	loadsp 44
     ebb:	51          	storesp 4
     ebc:	84          	im 4
     ebd:	cc          	im -52
     ebe:	3f          	callpcrel
     ebf:	64          	loadsp 80
     ec0:	66          	loadsp 88
     ec1:	5d          	storesp 52
     ec2:	5b          	storesp 44
     ec3:	80          	im 0
     ec4:	5e          	storesp 56
     ec5:	8d          	im 13
     ec6:	dd          	im -35
     ec7:	7e          	loadsp 56
     ec8:	55          	storesp 20
     ec9:	55          	storesp 20
     eca:	80          	im 0
     ecb:	e6          	im -26
     ecc:	8c          	im 12
     ecd:	08          	load
     ece:	80          	im 0
     ecf:	e6          	im -26
     ed0:	90          	im 16
     ed1:	08          	load
     ed2:	59          	storesp 36
     ed3:	52          	storesp 8
     ed4:	77          	loadsp 28
     ed5:	53          	storesp 12
     ed6:	79          	loadsp 36
     ed7:	51          	storesp 4
     ed8:	84          	im 4
     ed9:	b0          	im 48
     eda:	3f          	callpcrel
     edb:	66          	loadsp 88
     edc:	68          	loadsp 96
     edd:	40          	storesp 64
     ede:	54          	storesp 16
     edf:	7e          	loadsp 56
     ee0:	55          	storesp 20
     ee1:	7a          	loadsp 40
     ee2:	52          	storesp 8
     ee3:	7b          	loadsp 44
     ee4:	53          	storesp 12
     ee5:	a9          	im 41
     ee6:	3d          	pushspadd
     ee7:	ff          	im -1
     ee8:	a8          	im 40
     ee9:	05          	add
     eea:	51          	storesp 4
     eeb:	86          	im 6
     eec:	91          	im 17
     eed:	3f          	callpcrel
     eee:	62          	loadsp 72
     eef:	64          	loadsp 80
     ef0:	5e          	storesp 56
     ef1:	81          	im 1
     ef2:	b4          	im 52
     ef3:	c8          	im -56
     ef4:	0c          	store
     ef5:	7c          	loadsp 48
     ef6:	81          	im 1
     ef7:	b4          	im 52
     ef8:	cc          	im -52
     ef9:	0c          	store
     efa:	80          	im 0
     efb:	d1          	im -47
     efc:	a0          	im 32
     efd:	51          	storesp 4
     efe:	ed          	im -19
     eff:	cc          	im -52
     f00:	3f          	callpcrel
     f01:	80          	im 0
     f02:	e6          	im -26
     f03:	80          	im 0
     f04:	08          	load
     f05:	52          	storesp 8
     f06:	80          	im 0
     f07:	d1          	im -47
     f08:	d0          	im -48
     f09:	51          	storesp 4
     f0a:	ed          	im -19
     f0b:	c0          	im -64
     f0c:	3f          	callpcrel
     f0d:	80          	im 0
     f0e:	d1          	im -47
     f0f:	d8          	im -40
     f10:	51          	storesp 4
     f11:	ed          	im -19
     f12:	b9          	im 57
     f13:	3f          	callpcrel
     f14:	80          	im 0
     f15:	e6          	im -26
     f16:	88          	im 8
     f17:	08          	load
     f18:	52          	storesp 8
     f19:	80          	im 0
     f1a:	d1          	im -47
     f1b:	d0          	im -48
     f1c:	51          	storesp 4
     f1d:	ed          	im -19
     f1e:	ad          	im 45
     f1f:	3f          	callpcrel
     f20:	81          	im 1
     f21:	b4          	im 52
     f22:	cc          	im -52
     f23:	08          	load
     f24:	52          	storesp 8
     f25:	80          	im 0
     f26:	d2          	im -46
     f27:	88          	im 8
     f28:	51          	storesp 4
     f29:	ed          	im -19
     f2a:	a1          	im 33
     f2b:	3f          	callpcrel
     f2c:	80          	im 0
     f2d:	d2          	im -46
     f2e:	a4          	im 36
     f2f:	51          	storesp 4
     f30:	ed          	im -19
     f31:	9a          	im 26
     f32:	3f          	callpcrel
     f33:	80          	im 0
     f34:	0b          	nop
     f35:	80          	im 0
     f36:	0c          	store
     f37:	a9          	im 41
     f38:	3d          	pushspadd
     f39:	0d          	popsp
     f3a:	04          	poppc

00000f3b <.L146>:
     f3b:	a9          	im 41
     f3c:	3d          	pushspadd
     f3d:	ff          	im -1
     f3e:	a0          	im 32
     f3f:	05          	add
     f40:	52          	storesp 8
     f41:	80          	im 0
     f42:	51          	storesp 4
     f43:	80          	im 0
     f44:	d2          	im -46
     f45:	3f          	callpcrel
     f46:	9f          	im 31
     f47:	53          	storesp 12
     f48:	80          	im 0
     f49:	d3          	im -45
     f4a:	b0          	im 48
     f4b:	52          	storesp 8
     f4c:	7c          	loadsp 48
     f4d:	51          	storesp 4
     f4e:	9d          	im 29
     f4f:	82          	im 2
     f50:	3f          	callpcrel
     f51:	7a          	loadsp 40
     f52:	7b          	loadsp 44
     f53:	81          	im 1
     f54:	b4          	im 52
     f55:	b8          	im 56
     f56:	0c          	store
     f57:	81          	im 1
     f58:	18          	addsp 32
     f59:	70          	loadsp 0
     f5a:	81          	im 1
     f5b:	ff          	im -1
     f5c:	06          	and
     f5d:	81          	im 1
     f5e:	b4          	im 52
     f5f:	c0          	im -64
     f60:	33          	loadb
     f61:	59          	storesp 36
     f62:	59          	storesp 36
     f63:	59          	storesp 36
     f64:	5a          	storesp 40
     f65:	f5          	im -11
     f66:	fe          	im -2
     f67:	39          	poppcrel

00000f68 <.L148>:
     f68:	ff          	im -1
     f69:	16          	addsp 24
     f6a:	70          	loadsp 0
     f6b:	7b          	loadsp 44
     f6c:	31          	sub
     f6d:	60          	loadsp 64
     f6e:	0c          	store
     f6f:	5c          	storesp 48
     f70:	80          	im 0
     f71:	0b          	nop
     f72:	81          	im 1
     f73:	1c          	addsp 48
     f74:	5c          	storesp 48
     f75:	5c          	storesp 48
     f76:	80          	im 0
     f77:	d6          	im -42
     f78:	80          	im 0
     f79:	08          	load
     f7a:	7b          	loadsp 44
     f7b:	25          	lessthanorequal
     f7c:	f3          	im -13
     f7d:	dc          	im -36
     f7e:	38          	neqbranch
     f7f:	f6          	im -10
     f80:	a9          	im 41
     f81:	39          	poppcrel

00000f82 <Func_3>:
     f82:	ff          	im -1
     f83:	3d          	pushspadd
     f84:	0d          	popsp
     f85:	73          	loadsp 12
     f86:	82          	im 2
     f87:	32          	xor
     f88:	70          	loadsp 0
     f89:	30          	neg
     f8a:	70          	loadsp 0
     f8b:	72          	loadsp 8
     f8c:	07          	or
     f8d:	80          	im 0
     f8e:	25          	lessthanorequal
     f8f:	80          	im 0
     f90:	0c          	store
     f91:	52          	storesp 8
     f92:	52          	storesp 8
     f93:	83          	im 3
     f94:	3d          	pushspadd
     f95:	0d          	popsp
     f96:	04          	poppc

00000f97 <Proc_6>:
     f97:	fe          	im -2
     f98:	3d          	pushspadd
     f99:	0d          	popsp
     f9a:	74          	loadsp 16
     f9b:	76          	loadsp 24
     f9c:	71          	loadsp 4
     f9d:	53          	storesp 12
     f9e:	54          	storesp 16
     f9f:	52          	storesp 8
     fa0:	71          	loadsp 4
     fa1:	82          	im 2
     fa2:	2e          	eq
     fa3:	83          	im 3
     fa4:	38          	neqbranch
     fa5:	83          	im 3
     fa6:	51          	storesp 4

00000fa7 <.L5>:
     fa7:	71          	loadsp 4
     fa8:	81          	im 1
     fa9:	2e          	eq
     faa:	9a          	im 26
     fab:	38          	neqbranch
     fac:	81          	im 1
     fad:	72          	loadsp 8
     fae:	26          	ulessthan
     faf:	9f          	im 31
     fb0:	38          	neqbranch
     fb1:	71          	loadsp 4
     fb2:	82          	im 2
     fb3:	2e          	eq
     fb4:	b8          	im 56
     fb5:	38          	neqbranch
     fb6:	71          	loadsp 4
     fb7:	84          	im 4
     fb8:	2e          	eq
     fb9:	a9          	im 41
     fba:	38          	neqbranch
     fbb:	70          	loadsp 0
     fbc:	73          	loadsp 12
     fbd:	0c          	store
     fbe:	70          	loadsp 0
     fbf:	80          	im 0
     fc0:	0c          	store
     fc1:	84          	im 4
     fc2:	3d          	pushspadd
     fc3:	0d          	popsp
     fc4:	04          	poppc

00000fc5 <.L11>:
     fc5:	80          	im 0
     fc6:	e4          	im -28
     fc7:	0b          	nop
     fc8:	81          	im 1
     fc9:	b4          	im 52
     fca:	b8          	im 56
     fcb:	08          	load
     fcc:	25          	lessthanorequal
     fcd:	8b          	im 11
     fce:	38          	neqbranch

00000fcf <.L18>:
     fcf:	80          	im 0
     fd0:	73          	loadsp 12
     fd1:	0c          	store
     fd2:	70          	loadsp 0
     fd3:	80          	im 0
     fd4:	0c          	store
     fd5:	84          	im 4
     fd6:	3d          	pushspadd
     fd7:	0d          	popsp
     fd8:	04          	poppc

00000fd9 <.L12>:
     fd9:	83          	im 3
     fda:	73          	loadsp 12
     fdb:	0c          	store
     fdc:	70          	loadsp 0
     fdd:	80          	im 0
     fde:	0c          	store
     fdf:	84          	im 4
     fe0:	3d          	pushspadd
     fe1:	0d          	popsp
     fe2:	04          	poppc

00000fe3 <.L16>:
     fe3:	82          	im 2
     fe4:	73          	loadsp 12
     fe5:	0c          	store
     fe6:	70          	loadsp 0
     fe7:	80          	im 0
     fe8:	0c          	store
     fe9:	84          	im 4
     fea:	3d          	pushspadd
     feb:	0d          	popsp
     fec:	04          	poppc

00000fed <.L14>:
     fed:	81          	im 1
     fee:	73          	loadsp 12
     fef:	0c          	store
     ff0:	70          	loadsp 0
     ff1:	80          	im 0
     ff2:	0c          	store
     ff3:	84          	im 4
     ff4:	3d          	pushspadd
     ff5:	0d          	popsp
     ff6:	04          	poppc

00000ff7 <Proc_7>:
     ff7:	80          	im 0
     ff8:	3d          	pushspadd
     ff9:	0d          	popsp
     ffa:	74          	loadsp 16
     ffb:	74          	loadsp 16
     ffc:	14          	addsp 16
     ffd:	82          	im 2
     ffe:	05          	add
     fff:	71          	loadsp 4
    1000:	0c          	store
    1001:	80          	im 0
    1002:	0c          	store
    1003:	82          	im 2
    1004:	3d          	pushspadd
    1005:	0d          	popsp
    1006:	04          	poppc

00001007 <Proc_8>:
    1007:	f7          	im -9
    1008:	3d          	pushspadd
    1009:	0d          	popsp
    100a:	7b          	loadsp 44
    100b:	7d          	loadsp 52
    100c:	7f          	loadsp 60
    100d:	61          	loadsp 68
    100e:	85          	im 5
    100f:	12          	addsp 8
    1010:	70          	loadsp 0
    1011:	82          	im 2
    1012:	2b          	ashiftleft
    1013:	75          	loadsp 20
    1014:	11          	addsp 4
    1015:	70          	loadsp 0
    1016:	74          	loadsp 16
    1017:	71          	loadsp 4
    1018:	70          	loadsp 0
    1019:	84          	im 4
    101a:	05          	add
    101b:	53          	storesp 12
    101c:	0c          	store
    101d:	5a          	storesp 40
    101e:	5a          	storesp 40
    101f:	5d          	storesp 52
    1020:	5b          	storesp 44
    1021:	76          	loadsp 24
    1022:	0c          	store
    1023:	79          	loadsp 36
    1024:	80          	im 0
    1025:	f8          	im -8
    1026:	18          	addsp 32
    1027:	0c          	store
    1028:	79          	loadsp 36
    1029:	86          	im 6
    102a:	12          	addsp 8
    102b:	52          	storesp 8
    102c:	57          	storesp 28
    102d:	58          	storesp 32
    102e:	5a          	storesp 40
    102f:	5a          	storesp 40
    1030:	76          	loadsp 24
    1031:	76          	loadsp 24
    1032:	24          	lessthan
    1033:	99          	im 25
    1034:	38          	neqbranch
    1035:	76          	loadsp 24
    1036:	b3          	im 51
    1037:	29          	mult
    1038:	82          	im 2
    1039:	2b          	ashiftleft
    103a:	79          	loadsp 36
    103b:	11          	addsp 4
    103c:	51          	storesp 4
    103d:	53          	storesp 12

0000103e <.L25>:
    103e:	76          	loadsp 24
    103f:	73          	loadsp 12
    1040:	70          	loadsp 0
    1041:	84          	im 4
    1042:	05          	add
    1043:	55          	storesp 20
    1044:	0c          	store
    1045:	81          	im 1
    1046:	14          	addsp 16
    1047:	54          	storesp 16
    1048:	75          	loadsp 20
    1049:	74          	loadsp 16
    104a:	25          	lessthanorequal
    104b:	f2          	im -14
    104c:	38          	neqbranch

0000104d <.L27>:
    104d:	76          	loadsp 24
    104e:	81          	im 1
    104f:	cc          	im -52
    1050:	29          	mult
    1051:	19          	addsp 36
    1052:	fc          	im -4
    1053:	11          	addsp 4
    1054:	08          	load
    1055:	81          	im 1
    1056:	05          	add
    1057:	fc          	im -4
    1058:	12          	addsp 8
    1059:	0c          	store
    105a:	7a          	loadsp 40
    105b:	19          	addsp 36
    105c:	70          	loadsp 0
    105d:	08          	load
    105e:	9f          	im 31
    105f:	a0          	im 32
    1060:	13          	addsp 12
    1061:	0c          	store
    1062:	58          	storesp 32
    1063:	56          	storesp 24
    1064:	85          	im 5
    1065:	0b          	nop
    1066:	81          	im 1
    1067:	b4          	im 52
    1068:	b8          	im 56
    1069:	0c          	store
    106a:	75          	loadsp 20
    106b:	80          	im 0
    106c:	0c          	store
    106d:	8b          	im 11
    106e:	3d          	pushspadd
    106f:	0d          	popsp
    1070:	04          	poppc

00001071 <Func_1>:
    1071:	fe          	im -2
    1072:	3d          	pushspadd
    1073:	0d          	popsp
    1074:	02          	pushsp
    1075:	93          	im 19
    1076:	05          	add
    1077:	33          	loadb
    1078:	51          	storesp 4
    1079:	80          	im 0
    107a:	02          	pushsp
    107b:	84          	im 4
    107c:	05          	add
    107d:	97          	im 23
    107e:	05          	add
    107f:	33          	loadb
    1080:	54          	storesp 16
    1081:	52          	storesp 8
    1082:	70          	loadsp 0
    1083:	73          	loadsp 12
    1084:	2e          	eq
    1085:	88          	im 8
    1086:	38          	neqbranch
    1087:	71          	loadsp 4
    1088:	80          	im 0
    1089:	0c          	store
    108a:	84          	im 4
    108b:	3d          	pushspadd
    108c:	0d          	popsp
    108d:	04          	poppc

0000108e <.L34>:
    108e:	70          	loadsp 0
    108f:	81          	im 1
    1090:	b4          	im 52
    1091:	bc          	im 60
    1092:	34          	storeb
    1093:	81          	im 1
    1094:	0b          	nop
    1095:	80          	im 0
    1096:	0c          	store
    1097:	84          	im 4
    1098:	3d          	pushspadd
    1099:	0d          	popsp
    109a:	04          	poppc

0000109b <Func_2>:
    109b:	f8          	im -8
    109c:	3d          	pushspadd
    109d:	0d          	popsp
    109e:	7a          	loadsp 40
    109f:	7c          	loadsp 48
    10a0:	59          	storesp 36
    10a1:	56          	storesp 24
    10a2:	82          	im 2
    10a3:	0b          	nop
    10a4:	83          	im 3
    10a5:	19          	addsp 36
    10a6:	55          	storesp 20
    10a7:	55          	storesp 20

000010a8 <.L42>:
    10a8:	74          	loadsp 16
    10a9:	16          	addsp 24
    10aa:	70          	loadsp 0
    10ab:	33          	loadb
    10ac:	75          	loadsp 20
    10ad:	33          	loadb
    10ae:	5b          	storesp 44
    10af:	51          	storesp 4
    10b0:	53          	storesp 12
    10b1:	72          	loadsp 8
    10b2:	79          	loadsp 36
    10b3:	2e          	eq
    10b4:	80          	im 0
    10b5:	c6          	im -58
    10b6:	38          	neqbranch
    10b7:	80          	im 0
    10b8:	c1          	im -63
    10b9:	0b          	nop
    10ba:	81          	im 1
    10bb:	16          	addsp 24
    10bc:	81          	im 1
    10bd:	16          	addsp 24
    10be:	56          	storesp 24
    10bf:	56          	storesp 24
    10c0:	57          	storesp 28
    10c1:	82          	im 2
    10c2:	75          	loadsp 20
    10c3:	25          	lessthanorequal
    10c4:	e3          	im -29
    10c5:	38          	neqbranch

000010c6 <.L56>:
    10c6:	ff          	im -1
    10c7:	a9          	im 41
    10c8:	17          	addsp 28
    10c9:	70          	loadsp 0
    10ca:	81          	im 1
    10cb:	ff          	im -1
    10cc:	06          	and
    10cd:	55          	storesp 20
    10ce:	59          	storesp 36
    10cf:	73          	loadsp 12
    10d0:	82          	im 2
    10d1:	26          	ulessthan
    10d2:	83          	im 3
    10d3:	38          	neqbranch
    10d4:	87          	im 7
    10d5:	55          	storesp 20

000010d6 <.L43>:
    10d6:	81          	im 1
    10d7:	53          	storesp 12
    10d8:	76          	loadsp 24
    10d9:	80          	im 0
    10da:	d2          	im -46
    10db:	2e          	eq
    10dc:	98          	im 24
    10dd:	38          	neqbranch
    10de:	77          	loadsp 28
    10df:	52          	storesp 8
    10e0:	75          	loadsp 20
    10e1:	51          	storesp 4
    10e2:	9b          	im 27
    10e3:	c3          	im -61
    10e4:	3f          	callpcrel
    10e5:	80          	im 0
    10e6:	53          	storesp 12
    10e7:	72          	loadsp 8
    10e8:	80          	im 0
    10e9:	08          	load
    10ea:	25          	lessthanorequal
    10eb:	89          	im 9
    10ec:	38          	neqbranch
    10ed:	87          	im 7
    10ee:	15          	addsp 20
    10ef:	81          	im 1
    10f0:	b4          	im 52
    10f1:	b8          	im 56
    10f2:	0c          	store
    10f3:	81          	im 1
    10f4:	53          	storesp 12

000010f5 <.L35>:
    10f5:	72          	loadsp 8
    10f6:	80          	im 0
    10f7:	0c          	store
    10f8:	8a          	im 10
    10f9:	3d          	pushspadd
    10fa:	0d          	popsp
    10fb:	04          	poppc

000010fc <.L55>:
    10fc:	72          	loadsp 8
    10fd:	81          	im 1
    10fe:	b4          	im 52
    10ff:	bc          	im 60
    1100:	34          	storeb
    1101:	82          	im 2
    1102:	75          	loadsp 20
    1103:	25          	lessthanorequal
    1104:	ff          	im -1
    1105:	a2          	im 34
    1106:	38          	neqbranch
    1107:	ff          	im -1
    1108:	bd          	im 61
    1109:	39          	poppcrel

0000110a <__muldi3>:
    110a:	ef          	im -17
    110b:	3d          	pushspadd
    110c:	0d          	popsp
    110d:	63          	loadsp 76
    110e:	65          	loadsp 84
    110f:	67          	loadsp 92
    1110:	5b          	storesp 44
    1111:	42          	storesp 72
    1112:	79          	loadsp 36
    1113:	43          	storesp 76
    1114:	67          	loadsp 92
    1115:	69          	loadsp 100
    1116:	59          	storesp 36
    1117:	40          	storesp 64
    1118:	77          	loadsp 28
    1119:	41          	storesp 68
    111a:	5a          	storesp 40
    111b:	80          	im 0
    111c:	5d          	storesp 52
    111d:	80          	im 0
    111e:	5e          	storesp 56
    111f:	61          	loadsp 68
    1120:	70          	loadsp 0
    1121:	83          	im 3
    1122:	ff          	im -1
    1123:	ff          	im -1
    1124:	06          	and
    1125:	71          	loadsp 4
    1126:	90          	im 16
    1127:	2a          	lshiftright
    1128:	62          	loadsp 72
    1129:	70          	loadsp 0
    112a:	83          	im 3
    112b:	ff          	im -1
    112c:	ff          	im -1
    112d:	06          	and
    112e:	71          	loadsp 4
    112f:	90          	im 16
    1130:	2a          	lshiftright
    1131:	74          	loadsp 16
    1132:	72          	loadsp 8
    1133:	29          	mult
    1134:	74          	loadsp 16
    1135:	73          	loadsp 12
    1136:	29          	mult
    1137:	75          	loadsp 20
    1138:	73          	loadsp 12
    1139:	29          	mult
    113a:	77          	loadsp 28
    113b:	74          	loadsp 16
    113c:	29          	mult
    113d:	73          	loadsp 12
    113e:	90          	im 16
    113f:	2a          	lshiftright
    1140:	05          	add
    1141:	72          	loadsp 8
    1142:	11          	addsp 4
    1143:	51          	storesp 4
    1144:	58          	storesp 32
    1145:	56          	storesp 24
    1146:	53          	storesp 12
    1147:	5f          	storesp 60
    1148:	5a          	storesp 40
    1149:	57          	storesp 28
    114a:	5a          	storesp 40
    114b:	58          	storesp 32
    114c:	55          	storesp 20
    114d:	58          	storesp 32
    114e:	73          	loadsp 12
    114f:	73          	loadsp 12
    1150:	27          	ulessthanorequal
    1151:	86          	im 6
    1152:	38          	neqbranch
    1153:	84          	im 4
    1154:	80          	im 0
    1155:	80          	im 0
    1156:	16          	addsp 24
    1157:	56          	storesp 24

00001158 <.L3>:
    1158:	73          	loadsp 12
    1159:	90          	im 16
    115a:	2a          	lshiftright
    115b:	16          	addsp 24
    115c:	5b          	storesp 44
    115d:	78          	loadsp 32
    115e:	83          	im 3
    115f:	ff          	im -1
    1160:	ff          	im -1
    1161:	06          	and
    1162:	74          	loadsp 16
    1163:	84          	im 4
    1164:	80          	im 0
    1165:	80          	im 0
    1166:	29          	mult
    1167:	05          	add
    1168:	5c          	storesp 48
    1169:	7a          	loadsp 40
    116a:	7c          	loadsp 48
    116b:	5a          	storesp 40
    116c:	5d          	storesp 52
    116d:	78          	loadsp 32
    116e:	5e          	storesp 56
    116f:	77          	loadsp 28
    1170:	7f          	loadsp 60
    1171:	29          	mult
    1172:	61          	loadsp 68
    1173:	78          	loadsp 32
    1174:	29          	mult
    1175:	05          	add
    1176:	7d          	loadsp 52
    1177:	05          	add
    1178:	5d          	storesp 52
    1179:	7c          	loadsp 48
    117a:	7e          	loadsp 56
    117b:	56          	storesp 24
    117c:	7a          	loadsp 40
    117d:	0c          	store
    117e:	74          	loadsp 16
    117f:	84          	im 4
    1180:	1b          	addsp 44
    1181:	0c          	store
    1182:	79          	loadsp 36
    1183:	80          	im 0
    1184:	0c          	store
    1185:	93          	im 19
    1186:	3d          	pushspadd
    1187:	0d          	popsp
    1188:	04          	poppc

00001189 <__negdi2>:
    1189:	f9          	im -7
    118a:	3d          	pushspadd
    118b:	0d          	popsp
    118c:	79          	loadsp 36
    118d:	7b          	loadsp 44
    118e:	7d          	loadsp 52
    118f:	54          	storesp 16
    1190:	58          	storesp 32
    1191:	72          	loadsp 8
    1192:	59          	storesp 36
    1193:	77          	loadsp 28
    1194:	30          	neg
    1195:	79          	loadsp 36
    1196:	70          	loadsp 0
    1197:	30          	neg
    1198:	70          	loadsp 0
    1199:	72          	loadsp 8
    119a:	07          	or
    119b:	9f          	im 31
    119c:	2a          	lshiftright
    119d:	73          	loadsp 12
    119e:	71          	loadsp 4
    119f:	31          	sub
    11a0:	5a          	storesp 40
    11a1:	52          	storesp 8
    11a2:	59          	storesp 36
    11a3:	77          	loadsp 28
    11a4:	79          	loadsp 36
    11a5:	56          	storesp 24
    11a6:	73          	loadsp 12
    11a7:	0c          	store
    11a8:	53          	storesp 12
    11a9:	73          	loadsp 12
    11aa:	84          	im 4
    11ab:	13          	addsp 12
    11ac:	0c          	store
    11ad:	54          	storesp 16
    11ae:	80          	im 0
    11af:	0c          	store
    11b0:	89          	im 9
    11b1:	3d          	pushspadd
    11b2:	0d          	popsp
    11b3:	04          	poppc

000011b4 <__ashldi3>:
    11b4:	f9          	im -7
    11b5:	3d          	pushspadd
    11b6:	0d          	popsp
    11b7:	79          	loadsp 36
    11b8:	7b          	loadsp 44
    11b9:	7d          	loadsp 52
    11ba:	7f          	loadsp 60
    11bb:	56          	storesp 24
    11bc:	54          	storesp 16
    11bd:	52          	storesp 8
    11be:	54          	storesp 16
    11bf:	72          	loadsp 8
    11c0:	80          	im 0
    11c1:	2e          	eq
    11c2:	a0          	im 32
    11c3:	38          	neqbranch
    11c4:	70          	loadsp 0
    11c5:	57          	storesp 28
    11c6:	71          	loadsp 4
    11c7:	58          	storesp 32
    11c8:	a0          	im 32
    11c9:	73          	loadsp 12
    11ca:	31          	sub
    11cb:	52          	storesp 8
    11cc:	80          	im 0
    11cd:	72          	loadsp 8
    11ce:	25          	lessthanorequal
    11cf:	a1          	im 33
    11d0:	38          	neqbranch
    11d1:	77          	loadsp 28
    11d2:	70          	loadsp 0
    11d3:	74          	loadsp 16
    11d4:	2b          	ashiftleft
    11d5:	57          	storesp 28
    11d6:	70          	loadsp 0
    11d7:	73          	loadsp 12
    11d8:	2a          	lshiftright
    11d9:	78          	loadsp 32
    11da:	75          	loadsp 20
    11db:	2b          	ashiftleft
    11dc:	07          	or
    11dd:	56          	storesp 24
    11de:	51          	storesp 4
    11df:	74          	loadsp 16
    11e0:	76          	loadsp 24
    11e1:	53          	storesp 12
    11e2:	51          	storesp 4

000011e3 <.L5>:
    11e3:	70          	loadsp 0
    11e4:	74          	loadsp 16
    11e5:	0c          	store
    11e6:	71          	loadsp 4
    11e7:	84          	im 4
    11e8:	15          	addsp 20
    11e9:	0c          	store
    11ea:	73          	loadsp 12
    11eb:	80          	im 0
    11ec:	0c          	store
    11ed:	89          	im 9
    11ee:	3d          	pushspadd
    11ef:	0d          	popsp
    11f0:	04          	poppc

000011f1 <.L7>:
    11f1:	80          	im 0
    11f2:	56          	storesp 24
    11f3:	77          	loadsp 28
    11f4:	72          	loadsp 8
    11f5:	30          	neg
    11f6:	2b          	ashiftleft
    11f7:	55          	storesp 20
    11f8:	74          	loadsp 16
    11f9:	76          	loadsp 24
    11fa:	53          	storesp 12
    11fb:	51          	storesp 4
    11fc:	e6          	im -26
    11fd:	39          	poppcrel

000011fe <__divdi3>:
    11fe:	e4          	im -28
    11ff:	3d          	pushspadd
    1200:	0d          	popsp
    1201:	6e          	loadsp 120
    1202:	a1          	im 33
    1203:	3d          	pushspadd
    1204:	08          	load
    1205:	a3          	im 35
    1206:	3d          	pushspadd
    1207:	08          	load
    1208:	59          	storesp 36
    1209:	57          	storesp 28
    120a:	5f          	storesp 60
    120b:	80          	im 0
    120c:	76          	loadsp 24
    120d:	4d          	storesp 116
    120e:	77          	loadsp 28
    120f:	4e          	storesp 120
    1210:	a3          	im 35
    1211:	3d          	pushspadd
    1212:	08          	load
    1213:	a5          	im 37
    1214:	3d          	pushspadd
    1215:	08          	load
    1216:	57          	storesp 28
    1217:	4b          	storesp 108
    1218:	75          	loadsp 20
    1219:	4c          	storesp 112
    121a:	5e          	storesp 56
    121b:	7d          	loadsp 52
    121c:	6c          	loadsp 112
    121d:	24          	lessthan
    121e:	86          	im 6
    121f:	fb          	im -5
    1220:	38          	neqbranch
    1221:	80          	im 0
    1222:	6a          	loadsp 104
    1223:	24          	lessthan
    1224:	87          	im 7
    1225:	8f          	im 15
    1226:	38          	neqbranch

00001227 <.L108>:
    1227:	69          	loadsp 100
    1228:	6b          	loadsp 108
    1229:	58          	storesp 32
    122a:	56          	storesp 24

0000122b <.L3>:
    122b:	6b          	loadsp 108
    122c:	6d          	loadsp 116
    122d:	5d          	storesp 52
    122e:	46          	storesp 88
    122f:	7b          	loadsp 44
    1230:	47          	storesp 92
    1231:	75          	loadsp 20
    1232:	44          	storesp 80
    1233:	76          	loadsp 24
    1234:	45          	storesp 84
    1235:	64          	loadsp 80
    1236:	64          	loadsp 80
    1237:	68          	loadsp 96
    1238:	68          	loadsp 96
    1239:	5c          	storesp 48
    123a:	5c          	storesp 48
    123b:	56          	storesp 24
    123c:	56          	storesp 24
    123d:	74          	loadsp 16
    123e:	81          	im 1
    123f:	e7          	im -25
    1240:	38          	neqbranch
    1241:	78          	loadsp 32
    1242:	76          	loadsp 24
    1243:	27          	ulessthanorequal
    1244:	82          	im 2
    1245:	c7          	im -57
    1246:	38          	neqbranch
    1247:	75          	loadsp 20
    1248:	81          	im 1
    1249:	ff          	im -1
    124a:	26          	ulessthan
    124b:	83          	im 3
    124c:	2b          	ashiftleft
    124d:	55          	storesp 20
    124e:	83          	im 3
    124f:	ff          	im -1
    1250:	ff          	im -1
    1251:	76          	loadsp 24
    1252:	27          	ulessthanorequal
    1253:	8c          	im 12
    1254:	38          	neqbranch
    1255:	90          	im 16
    1256:	55          	storesp 20
    1257:	fe          	im -2
    1258:	80          	im 0
    1259:	0a          	flip
    125a:	76          	loadsp 24
    125b:	27          	ulessthanorequal
    125c:	83          	im 3
    125d:	38          	neqbranch
    125e:	98          	im 24
    125f:	55          	storesp 20

00001260 <.L9>:
    1260:	75          	loadsp 20
    1261:	75          	loadsp 20
    1262:	2a          	lshiftright
    1263:	80          	im 0
    1264:	d3          	im -45
    1265:	d0          	im -48
    1266:	05          	add
    1267:	70          	loadsp 0
    1268:	33          	loadb
    1269:	a0          	im 32
    126a:	77          	loadsp 28
    126b:	31          	sub
    126c:	71          	loadsp 4
    126d:	31          	sub
    126e:	57          	storesp 28
    126f:	55          	storesp 20
    1270:	57          	storesp 28
    1271:	74          	loadsp 16
    1272:	80          	im 0
    1273:	2e          	eq
    1274:	95          	im 21
    1275:	38          	neqbranch
    1276:	75          	loadsp 20
    1277:	75          	loadsp 20
    1278:	2b          	ashiftleft
    1279:	a0          	im 32
    127a:	76          	loadsp 24
    127b:	31          	sub
    127c:	7a          	loadsp 40
    127d:	77          	loadsp 28
    127e:	2b          	ashiftleft
    127f:	7c          	loadsp 48
    1280:	72          	loadsp 8
    1281:	2a          	lshiftright
    1282:	07          	or
    1283:	7c          	loadsp 48
    1284:	78          	loadsp 32
    1285:	2b          	ashiftleft
    1286:	5d          	storesp 52
    1287:	5b          	storesp 44
    1288:	59          	storesp 36
    1289:	56          	storesp 24

0000128a <.L20>:
    128a:	75          	loadsp 20
    128b:	90          	im 16
    128c:	2a          	lshiftright
    128d:	76          	loadsp 24
    128e:	83          	im 3
    128f:	ff          	im -1
    1290:	ff          	im -1
    1291:	06          	and
    1292:	71          	loadsp 4
    1293:	54          	storesp 16
    1294:	7a          	loadsp 40
    1295:	53          	storesp 12
    1296:	59          	storesp 36
    1297:	57          	storesp 28
    1298:	88          	im 8
    1299:	80          	im 0
    129a:	3f          	callpcrel
    129b:	80          	im 0
    129c:	08          	load
    129d:	5b          	storesp 44
    129e:	87          	im 7
    129f:	ea          	im -22
    12a0:	3f          	callpcrel
    12a1:	80          	im 0
    12a2:	08          	load
    12a3:	80          	im 0
    12a4:	08          	load
    12a5:	79          	loadsp 36
    12a6:	29          	mult
    12a7:	7c          	loadsp 48
    12a8:	90          	im 16
    12a9:	2b          	ashiftleft
    12aa:	7c          	loadsp 48
    12ab:	90          	im 16
    12ac:	2a          	lshiftright
    12ad:	07          	or
    12ae:	56          	storesp 24
    12af:	56          	storesp 24
    12b0:	59          	storesp 36
    12b1:	73          	loadsp 12
    12b2:	75          	loadsp 20
    12b3:	27          	ulessthanorequal
    12b4:	94          	im 20
    12b5:	38          	neqbranch
    12b6:	80          	im 0
    12b7:	08          	load
    12b8:	ff          	im -1
    12b9:	05          	add
    12ba:	76          	loadsp 24
    12bb:	15          	addsp 20
    12bc:	55          	storesp 20
    12bd:	59          	storesp 36
    12be:	75          	loadsp 20
    12bf:	74          	loadsp 16
    12c0:	26          	ulessthan
    12c1:	87          	im 7
    12c2:	38          	neqbranch
    12c3:	74          	loadsp 16
    12c4:	74          	loadsp 16
    12c5:	26          	ulessthan
    12c6:	87          	im 7
    12c7:	b9          	im 57
    12c8:	38          	neqbranch

000012c9 <.L22>:
    12c9:	76          	loadsp 24
    12ca:	52          	storesp 8
    12cb:	73          	loadsp 12
    12cc:	75          	loadsp 20
    12cd:	31          	sub
    12ce:	51          	storesp 4
    12cf:	87          	im 7
    12d0:	c9          	im -55
    12d1:	3f          	callpcrel
    12d2:	80          	im 0
    12d3:	08          	load
    12d4:	55          	storesp 20
    12d5:	87          	im 7
    12d6:	b3          	im 51
    12d7:	3f          	callpcrel
    12d8:	80          	im 0
    12d9:	08          	load
    12da:	80          	im 0
    12db:	08          	load
    12dc:	79          	loadsp 36
    12dd:	29          	mult
    12de:	7b          	loadsp 44
    12df:	83          	im 3
    12e0:	ff          	im -1
    12e1:	ff          	im -1
    12e2:	06          	and
    12e3:	77          	loadsp 28
    12e4:	90          	im 16
    12e5:	2b          	ashiftleft
    12e6:	07          	or
    12e7:	56          	storesp 24
    12e8:	59          	storesp 36
    12e9:	57          	storesp 28
    12ea:	73          	loadsp 12
    12eb:	78          	loadsp 32
    12ec:	27          	ulessthanorequal
    12ed:	96          	im 22
    12ee:	38          	neqbranch
    12ef:	80          	im 0
    12f0:	08          	load
    12f1:	ff          	im -1
    12f2:	05          	add
    12f3:	76          	loadsp 24
    12f4:	15          	addsp 20
    12f5:	55          	storesp 20
    12f6:	57          	storesp 28
    12f7:	75          	loadsp 20
    12f8:	74          	loadsp 16
    12f9:	26          	ulessthan
    12fa:	89          	im 9
    12fb:	38          	neqbranch
    12fc:	77          	loadsp 28
    12fd:	74          	loadsp 16
    12fe:	26          	ulessthan
    12ff:	77          	loadsp 28
    1300:	71          	loadsp 4
    1301:	31          	sub
    1302:	58          	storesp 32
    1303:	56          	storesp 24

00001304 <.L25>:
    1304:	78          	loadsp 32
    1305:	90          	im 16
    1306:	2b          	ashiftleft
    1307:	77          	loadsp 28
    1308:	07          	or
    1309:	58          	storesp 32

0000130a <.L97>:
    130a:	80          	im 0
    130b:	5b          	storesp 44

0000130c <.L61>:
    130c:	7a          	loadsp 40
    130d:	40          	storesp 64
    130e:	77          	loadsp 28
    130f:	41          	storesp 68
    1310:	7f          	loadsp 60
    1311:	61          	loadsp 68
    1312:	56          	storesp 24
    1313:	54          	storesp 16
    1314:	7d          	loadsp 52
    1315:	80          	im 0
    1316:	d9          	im -39
    1317:	38          	neqbranch

00001318 <.L107>:
    1318:	73          	loadsp 12
    1319:	7f          	loadsp 60
    131a:	0c          	store
    131b:	74          	loadsp 16
    131c:	7f          	loadsp 60
    131d:	84          	im 4
    131e:	05          	add
    131f:	0c          	store
    1320:	7e          	loadsp 56
    1321:	80          	im 0
    1322:	0c          	store
    1323:	9e          	im 30
    1324:	3d          	pushspadd
    1325:	0d          	popsp
    1326:	04          	poppc

00001327 <.L4>:
    1327:	80          	im 0
    1328:	70          	loadsp 0
    1329:	5c          	storesp 48
    132a:	58          	storesp 32
    132b:	74          	loadsp 16
    132c:	79          	loadsp 36
    132d:	26          	ulessthan
    132e:	dd          	im -35
    132f:	38          	neqbranch
    1330:	74          	loadsp 16
    1331:	81          	im 1
    1332:	ff          	im -1
    1333:	26          	ulessthan
    1334:	83          	im 3
    1335:	2b          	ashiftleft
    1336:	57          	storesp 28
    1337:	74          	loadsp 16
    1338:	83          	im 3
    1339:	ff          	im -1
    133a:	ff          	im -1
    133b:	26          	ulessthan
    133c:	82          	im 2
    133d:	a5          	im 37
    133e:	38          	neqbranch

0000133f <.L68>:
    133f:	74          	loadsp 16
    1340:	77          	loadsp 28
    1341:	2a          	lshiftright
    1342:	80          	im 0
    1343:	d3          	im -45
    1344:	d0          	im -48
    1345:	05          	add
    1346:	70          	loadsp 0
    1347:	33          	loadb
    1348:	a0          	im 32
    1349:	79          	loadsp 36
    134a:	31          	sub
    134b:	71          	loadsp 4
    134c:	31          	sub
    134d:	59          	storesp 36
    134e:	5c          	storesp 48
    134f:	5d          	storesp 52
    1350:	76          	loadsp 24
    1351:	82          	im 2
    1352:	b3          	im 51
    1353:	38          	neqbranch

00001354 <.L118>:
    1354:	76          	loadsp 24
    1355:	54          	storesp 16
    1356:	74          	loadsp 16
    1357:	79          	loadsp 36
    1358:	27          	ulessthanorequal
    1359:	83          	im 3
    135a:	38          	neqbranch
    135b:	81          	im 1
    135c:	54          	storesp 16

0000135d <.L81>:
    135d:	79          	loadsp 36
    135e:	76          	loadsp 24
    135f:	27          	ulessthanorequal
    1360:	74          	loadsp 16
    1361:	07          	or
    1362:	59          	storesp 36
    1363:	81          	im 1
    1364:	58          	storesp 32
    1365:	78          	loadsp 32
    1366:	ff          	im -1
    1367:	a2          	im 34
    1368:	38          	neqbranch
    1369:	76          	loadsp 24
    136a:	58          	storesp 32
    136b:	80          	im 0
    136c:	5b          	storesp 44
    136d:	ff          	im -1
    136e:	9d          	im 29
    136f:	39          	poppcrel

00001370 <.L114>:
    1370:	73          	loadsp 12
    1371:	52          	storesp 8
    1372:	74          	loadsp 16
    1373:	53          	storesp 12
    1374:	9e          	im 30
    1375:	3d          	pushspadd
    1376:	e8          	im -24
    1377:	05          	add
    1378:	51          	storesp 4
    1379:	fc          	im -4
    137a:	8e          	im 14
    137b:	3f          	callpcrel
    137c:	67          	loadsp 92
    137d:	69          	loadsp 100
    137e:	56          	storesp 24
    137f:	7f          	loadsp 60
    1380:	0c          	store
    1381:	74          	loadsp 16
    1382:	7f          	loadsp 60
    1383:	84          	im 4
    1384:	05          	add
    1385:	0c          	store
    1386:	7e          	loadsp 56
    1387:	80          	im 0
    1388:	0c          	store
    1389:	9e          	im 30
    138a:	3d          	pushspadd
    138b:	0d          	popsp
    138c:	04          	poppc

0000138d <.L5>:
    138d:	75          	loadsp 20
    138e:	80          	im 0
    138f:	2e          	eq
    1390:	81          	im 1
    1391:	c4          	im -60
    1392:	38          	neqbranch

00001393 <.L29>:
    1393:	75          	loadsp 20
    1394:	81          	im 1
    1395:	ff          	im -1
    1396:	26          	ulessthan
    1397:	83          	im 3
    1398:	2b          	ashiftleft
    1399:	55          	storesp 20
    139a:	83          	im 3
    139b:	ff          	im -1
    139c:	ff          	im -1
    139d:	76          	loadsp 24
    139e:	27          	ulessthanorequal
    139f:	8c          	im 12
    13a0:	38          	neqbranch
    13a1:	90          	im 16
    13a2:	55          	storesp 20
    13a3:	fe          	im -2
    13a4:	80          	im 0
    13a5:	0a          	flip
    13a6:	76          	loadsp 24
    13a7:	27          	ulessthanorequal
    13a8:	83          	im 3
    13a9:	38          	neqbranch
    13aa:	98          	im 24
    13ab:	55          	storesp 20

000013ac <.L33>:
    13ac:	75          	loadsp 20
    13ad:	75          	loadsp 20
    13ae:	2a          	lshiftright
    13af:	80          	im 0
    13b0:	d3          	im -45
    13b1:	d0          	im -48
    13b2:	05          	add
    13b3:	70          	loadsp 0
    13b4:	33          	loadb
    13b5:	a0          	im 32
    13b6:	77          	loadsp 28
    13b7:	31          	sub
    13b8:	71          	loadsp 4
    13b9:	31          	sub
    13ba:	57          	storesp 28
    13bb:	5e          	storesp 56
    13bc:	54          	storesp 16
    13bd:	74          	loadsp 16
    13be:	84          	im 4
    13bf:	91          	im 17
    13c0:	38          	neqbranch
    13c1:	78          	loadsp 32
    13c2:	76          	loadsp 24
    13c3:	31          	sub
    13c4:	54          	storesp 16
    13c5:	81          	im 1
    13c6:	76          	loadsp 24
    13c7:	90          	im 16
    13c8:	2a          	lshiftright
    13c9:	77          	loadsp 28
    13ca:	83          	im 3
    13cb:	ff          	im -1
    13cc:	ff          	im -1
    13cd:	06          	and
    13ce:	5f          	storesp 60
    13cf:	5d          	storesp 52
    13d0:	5b          	storesp 44

000013d1 <.L45>:
    13d1:	7b          	loadsp 44
    13d2:	52          	storesp 8
    13d3:	73          	loadsp 12
    13d4:	51          	storesp 4
    13d5:	85          	im 5
    13d6:	c3          	im -61
    13d7:	3f          	callpcrel
    13d8:	80          	im 0
    13d9:	08          	load
    13da:	57          	storesp 28
    13db:	85          	im 5
    13dc:	ad          	im 45
    13dd:	3f          	callpcrel
    13de:	80          	im 0
    13df:	08          	load
    13e0:	80          	im 0
    13e1:	08          	load
    13e2:	7e          	loadsp 56
    13e3:	29          	mult
    13e4:	78          	loadsp 32
    13e5:	90          	im 16
    13e6:	2b          	ashiftleft
    13e7:	7c          	loadsp 48
    13e8:	90          	im 16
    13e9:	2a          	lshiftright
    13ea:	07          	or
    13eb:	56          	storesp 24
    13ec:	56          	storesp 24
    13ed:	59          	storesp 36
    13ee:	73          	loadsp 12
    13ef:	75          	loadsp 20
    13f0:	27          	ulessthanorequal
    13f1:	94          	im 20
    13f2:	38          	neqbranch
    13f3:	80          	im 0
    13f4:	08          	load
    13f5:	ff          	im -1
    13f6:	05          	add
    13f7:	76          	loadsp 24
    13f8:	15          	addsp 20
    13f9:	55          	storesp 20
    13fa:	59          	storesp 36
    13fb:	75          	loadsp 20
    13fc:	74          	loadsp 16
    13fd:	26          	ulessthan
    13fe:	87          	im 7
    13ff:	38          	neqbranch
    1400:	74          	loadsp 16
    1401:	74          	loadsp 16
    1402:	26          	ulessthan
    1403:	84          	im 4
    1404:	f3          	im -13
    1405:	38          	neqbranch

00001406 <.L54>:
    1406:	7b          	loadsp 44
    1407:	52          	storesp 8
    1408:	73          	loadsp 12
    1409:	75          	loadsp 20
    140a:	31          	sub
    140b:	51          	storesp 4
    140c:	85          	im 5
    140d:	8c          	im 12
    140e:	3f          	callpcrel
    140f:	80          	im 0
    1410:	08          	load
    1411:	55          	storesp 20
    1412:	84          	im 4
    1413:	f6          	im -10
    1414:	3f          	callpcrel
    1415:	80          	im 0
    1416:	08          	load
    1417:	80          	im 0
    1418:	08          	load
    1419:	7e          	loadsp 56
    141a:	29          	mult
    141b:	7b          	loadsp 44
    141c:	83          	im 3
    141d:	ff          	im -1
    141e:	ff          	im -1
    141f:	06          	and
    1420:	77          	loadsp 28
    1421:	90          	im 16
    1422:	2b          	ashiftleft
    1423:	07          	or
    1424:	56          	storesp 24
    1425:	59          	storesp 36
    1426:	57          	storesp 28
    1427:	73          	loadsp 12
    1428:	78          	loadsp 32
    1429:	27          	ulessthanorequal
    142a:	96          	im 22
    142b:	38          	neqbranch
    142c:	80          	im 0
    142d:	08          	load
    142e:	ff          	im -1
    142f:	05          	add
    1430:	76          	loadsp 24
    1431:	15          	addsp 20
    1432:	55          	storesp 20
    1433:	57          	storesp 28
    1434:	75          	loadsp 20
    1435:	74          	loadsp 16
    1436:	26          	ulessthan
    1437:	89          	im 9
    1438:	38          	neqbranch
    1439:	77          	loadsp 28
    143a:	74          	loadsp 16
    143b:	26          	ulessthan
    143c:	77          	loadsp 28
    143d:	71          	loadsp 4
    143e:	31          	sub
    143f:	58          	storesp 32
    1440:	5a          	storesp 40

00001441 <.L57>:
    1441:	78          	loadsp 32
    1442:	90          	im 16
    1443:	2b          	ashiftleft
    1444:	77          	loadsp 28
    1445:	07          	or
    1446:	7b          	loadsp 44
    1447:	41          	storesp 68
    1448:	41          	storesp 68
    1449:	7f          	loadsp 60
    144a:	61          	loadsp 68
    144b:	56          	storesp 24
    144c:	54          	storesp 16
    144d:	7d          	loadsp 52
    144e:	80          	im 0
    144f:	2e          	eq
    1450:	fd          	im -3
    1451:	c6          	im -58
    1452:	38          	neqbranch
    1453:	fe          	im -2
    1454:	9b          	im 27
    1455:	39          	poppcrel

00001456 <.L116>:
    1456:	75          	loadsp 20
    1457:	52          	storesp 8
    1458:	81          	im 1
    1459:	51          	storesp 4
    145a:	84          	im 4
    145b:	ae          	im 46
    145c:	3f          	callpcrel
    145d:	80          	im 0
    145e:	08          	load
    145f:	56          	storesp 24
    1460:	fe          	im -2
    1461:	b1          	im 49
    1462:	39          	poppcrel

00001463 <.L115>:
    1463:	90          	im 16
    1464:	57          	storesp 28
    1465:	fe          	im -2
    1466:	80          	im 0
    1467:	0a          	flip
    1468:	75          	loadsp 20
    1469:	27          	ulessthanorequal
    146a:	fd          	im -3
    146b:	d3          	im -45
    146c:	38          	neqbranch
    146d:	98          	im 24
    146e:	75          	loadsp 20
    146f:	71          	loadsp 4
    1470:	2a          	lshiftright
    1471:	80          	im 0
    1472:	d3          	im -45
    1473:	d0          	im -48
    1474:	05          	add
    1475:	70          	loadsp 0
    1476:	33          	loadb
    1477:	a0          	im 32
    1478:	73          	loadsp 12
    1479:	31          	sub
    147a:	71          	loadsp 4
    147b:	31          	sub
    147c:	53          	storesp 12
    147d:	5d          	storesp 52
    147e:	5e          	storesp 56
    147f:	57          	storesp 28
    1480:	76          	loadsp 24
    1481:	80          	im 0
    1482:	2e          	eq
    1483:	fd          	im -3
    1484:	cf          	im -49
    1485:	38          	neqbranch

00001486 <.L79>:
    1486:	a0          	im 32
    1487:	77          	loadsp 28
    1488:	31          	sub
    1489:	75          	loadsp 20
    148a:	78          	loadsp 32
    148b:	2b          	ashiftleft
    148c:	77          	loadsp 28
    148d:	72          	loadsp 8
    148e:	2a          	lshiftright
    148f:	07          	or
    1490:	77          	loadsp 28
    1491:	79          	loadsp 36
    1492:	2b          	ashiftleft
    1493:	7b          	loadsp 44
    1494:	7a          	loadsp 40
    1495:	2b          	ashiftleft
    1496:	7d          	loadsp 52
    1497:	74          	loadsp 16
    1498:	2a          	lshiftright
    1499:	07          	or
    149a:	7d          	loadsp 52
    149b:	7b          	loadsp 44
    149c:	2b          	ashiftleft
    149d:	73          	loadsp 12
    149e:	90          	im 16
    149f:	2a          	lshiftright
    14a0:	74          	loadsp 16
    14a1:	83          	im 3
    14a2:	ff          	im -1
    14a3:	ff          	im -1
    14a4:	06          	and
    14a5:	71          	loadsp 4
    14a6:	59          	storesp 36
    14a7:	7f          	loadsp 60
    14a8:	77          	loadsp 28
    14a9:	2a          	lshiftright
    14aa:	58          	storesp 32
    14ab:	5e          	storesp 56
    14ac:	5c          	storesp 48
    14ad:	41          	storesp 68
    14ae:	5f          	storesp 60
    14af:	58          	storesp 32
    14b0:	5c          	storesp 48
    14b1:	54          	storesp 16
    14b2:	83          	im 3
    14b3:	e6          	im -26
    14b4:	3f          	callpcrel
    14b5:	80          	im 0
    14b6:	08          	load
    14b7:	54          	storesp 16
    14b8:	83          	im 3
    14b9:	d0          	im -48
    14ba:	3f          	callpcrel
    14bb:	80          	im 0
    14bc:	08          	load
    14bd:	80          	im 0
    14be:	08          	load
    14bf:	79          	loadsp 36
    14c0:	29          	mult
    14c1:	75          	loadsp 20
    14c2:	90          	im 16
    14c3:	2b          	ashiftleft
    14c4:	7e          	loadsp 56
    14c5:	90          	im 16
    14c6:	2a          	lshiftright
    14c7:	07          	or
    14c8:	56          	storesp 24
    14c9:	56          	storesp 24
    14ca:	59          	storesp 36
    14cb:	73          	loadsp 12
    14cc:	75          	loadsp 20
    14cd:	27          	ulessthanorequal
    14ce:	99          	im 25
    14cf:	38          	neqbranch
    14d0:	80          	im 0
    14d1:	08          	load
    14d2:	ff          	im -1
    14d3:	05          	add
    14d4:	7b          	loadsp 44
    14d5:	15          	addsp 20
    14d6:	55          	storesp 20
    14d7:	59          	storesp 36
    14d8:	7a          	loadsp 40
    14d9:	74          	loadsp 16
    14da:	26          	ulessthan
    14db:	8c          	im 12
    14dc:	38          	neqbranch
    14dd:	73          	loadsp 12
    14de:	75          	loadsp 20
    14df:	27          	ulessthanorequal
    14e0:	87          	im 7
    14e1:	38          	neqbranch
    14e2:	ff          	im -1
    14e3:	19          	addsp 36
    14e4:	7b          	loadsp 44
    14e5:	15          	addsp 20
    14e6:	55          	storesp 20
    14e7:	59          	storesp 36

000014e8 <.L89>:
    14e8:	76          	loadsp 24
    14e9:	52          	storesp 8
    14ea:	73          	loadsp 12
    14eb:	75          	loadsp 20
    14ec:	31          	sub
    14ed:	51          	storesp 4
    14ee:	83          	im 3
    14ef:	aa          	im 42
    14f0:	3f          	callpcrel
    14f1:	80          	im 0
    14f2:	08          	load
    14f3:	55          	storesp 20
    14f4:	83          	im 3
    14f5:	94          	im 20
    14f6:	3f          	callpcrel
    14f7:	80          	im 0
    14f8:	08          	load
    14f9:	80          	im 0
    14fa:	08          	load
    14fb:	79          	loadsp 36
    14fc:	29          	mult
    14fd:	7d          	loadsp 52
    14fe:	83          	im 3
    14ff:	ff          	im -1
    1500:	ff          	im -1
    1501:	06          	and
    1502:	77          	loadsp 28
    1503:	90          	im 16
    1504:	2b          	ashiftleft
    1505:	07          	or
    1506:	56          	storesp 24
    1507:	59          	storesp 36
    1508:	57          	storesp 28
    1509:	73          	loadsp 12
    150a:	78          	loadsp 32
    150b:	27          	ulessthanorequal
    150c:	99          	im 25
    150d:	38          	neqbranch
    150e:	80          	im 0
    150f:	08          	load
    1510:	ff          	im -1
    1511:	05          	add
    1512:	7b          	loadsp 44
    1513:	15          	addsp 20
    1514:	55          	storesp 20
    1515:	57          	storesp 28
    1516:	7a          	loadsp 40
    1517:	74          	loadsp 16
    1518:	26          	ulessthan
    1519:	8c          	im 12
    151a:	38          	neqbranch
    151b:	73          	loadsp 12
    151c:	78          	loadsp 32
    151d:	27          	ulessthanorequal
    151e:	87          	im 7
    151f:	38          	neqbranch
    1520:	ff          	im -1
    1521:	17          	addsp 28
    1522:	7b          	loadsp 44
    1523:	15          	addsp 20
    1524:	55          	storesp 20
    1525:	57          	storesp 28

00001526 <.L92>:
    1526:	73          	loadsp 12
    1527:	78          	loadsp 32
    1528:	31          	sub
    1529:	79          	loadsp 36
    152a:	90          	im 16
    152b:	2b          	ashiftleft
    152c:	78          	loadsp 32
    152d:	07          	or
    152e:	70          	loadsp 0
    152f:	83          	im 3
    1530:	ff          	im -1
    1531:	ff          	im -1
    1532:	06          	and
    1533:	71          	loadsp 4
    1534:	90          	im 16
    1535:	2a          	lshiftright
    1536:	79          	loadsp 36
    1537:	83          	im 3
    1538:	ff          	im -1
    1539:	ff          	im -1
    153a:	06          	and
    153b:	7a          	loadsp 40
    153c:	90          	im 16
    153d:	2a          	lshiftright
    153e:	73          	loadsp 12
    153f:	72          	loadsp 8
    1540:	29          	mult
    1541:	73          	loadsp 12
    1542:	73          	loadsp 12
    1543:	29          	mult
    1544:	74          	loadsp 16
    1545:	73          	loadsp 12
    1546:	29          	mult
    1547:	76          	loadsp 24
    1548:	74          	loadsp 16
    1549:	29          	mult
    154a:	73          	loadsp 12
    154b:	90          	im 16
    154c:	2a          	lshiftright
    154d:	05          	add
    154e:	72          	loadsp 8
    154f:	05          	add
    1550:	57          	storesp 28
    1551:	55          	storesp 20
    1552:	43          	storesp 76
    1553:	5f          	storesp 60
    1554:	5b          	storesp 44
    1555:	58          	storesp 32
    1556:	5a          	storesp 40
    1557:	57          	storesp 28
    1558:	59          	storesp 36
    1559:	5a          	storesp 40
    155a:	74          	loadsp 16
    155b:	7c          	loadsp 48
    155c:	27          	ulessthanorequal
    155d:	86          	im 6
    155e:	38          	neqbranch
    155f:	84          	im 4
    1560:	80          	im 0
    1561:	80          	im 0
    1562:	17          	addsp 28
    1563:	57          	storesp 28

00001564 <.L96>:
    1564:	74          	loadsp 16
    1565:	90          	im 16
    1566:	2a          	lshiftright
    1567:	17          	addsp 28
    1568:	79          	loadsp 36
    1569:	83          	im 3
    156a:	ff          	im -1
    156b:	ff          	im -1
    156c:	06          	and
    156d:	76          	loadsp 24
    156e:	84          	im 4
    156f:	80          	im 0
    1570:	80          	im 0
    1571:	29          	mult
    1572:	05          	add
    1573:	57          	storesp 28
    1574:	57          	storesp 28
    1575:	76          	loadsp 24
    1576:	7a          	loadsp 40
    1577:	26          	ulessthan
    1578:	9a          	im 26
    1579:	38          	neqbranch
    157a:	76          	loadsp 24
    157b:	7a          	loadsp 40
    157c:	32          	xor
    157d:	70          	loadsp 0
    157e:	30          	neg
    157f:	70          	loadsp 0
    1580:	72          	loadsp 8
    1581:	07          	or
    1582:	80          	im 0
    1583:	25          	lessthanorequal
    1584:	56          	storesp 24
    1585:	5a          	storesp 40
    1586:	5b          	storesp 44
    1587:	7c          	loadsp 48
    1588:	76          	loadsp 24
    1589:	27          	ulessthanorequal
    158a:	fa          	im -6
    158b:	fe          	im -2
    158c:	38          	neqbranch
    158d:	73          	loadsp 12
    158e:	80          	im 0
    158f:	2e          	eq
    1590:	fa          	im -6
    1591:	f8          	im -8
    1592:	38          	neqbranch

00001593 <.L98>:
    1593:	ff          	im -1
    1594:	18          	addsp 32
    1595:	58          	storesp 32
    1596:	80          	im 0
    1597:	5b          	storesp 44
    1598:	fa          	im -6
    1599:	f2          	im -14
    159a:	39          	poppcrel

0000159b <.L111>:
    159b:	ff          	im -1
    159c:	76          	loadsp 24
    159d:	53          	storesp 12
    159e:	77          	loadsp 28
    159f:	54          	storesp 16
    15a0:	9f          	im 31
    15a1:	3d          	pushspadd
    15a2:	e8          	im -24
    15a3:	05          	add
    15a4:	52          	storesp 8
    15a5:	5e          	storesp 56
    15a6:	f7          	im -9
    15a7:	e1          	im -31
    15a8:	3f          	callpcrel
    15a9:	67          	loadsp 92
    15aa:	69          	loadsp 100
    15ab:	57          	storesp 28
    15ac:	4c          	storesp 112
    15ad:	75          	loadsp 20
    15ae:	4d          	storesp 116
    15af:	69          	loadsp 100
    15b0:	80          	im 0
    15b1:	25          	lessthanorequal
    15b2:	f8          	im -8
    15b3:	f3          	im -13
    15b4:	38          	neqbranch

000015b5 <.L112>:
    15b5:	7d          	loadsp 52
    15b6:	09          	not
    15b7:	6a          	loadsp 104
    15b8:	6c          	loadsp 112
    15b9:	5c          	storesp 48
    15ba:	53          	storesp 12
    15bb:	7a          	loadsp 40
    15bc:	54          	storesp 16
    15bd:	9f          	im 31
    15be:	3d          	pushspadd
    15bf:	e8          	im -24
    15c0:	05          	add
    15c1:	52          	storesp 8
    15c2:	5e          	storesp 56
    15c3:	f7          	im -9
    15c4:	c4          	im -60
    15c5:	3f          	callpcrel
    15c6:	67          	loadsp 92
    15c7:	69          	loadsp 100
    15c8:	71          	loadsp 4
    15c9:	4c          	storesp 112
    15ca:	70          	loadsp 0
    15cb:	4d          	storesp 116
    15cc:	58          	storesp 32
    15cd:	56          	storesp 24
    15ce:	f8          	im -8
    15cf:	db          	im -37
    15d0:	39          	poppcrel

000015d1 <.L44>:
    15d1:	a0          	im 32
    15d2:	75          	loadsp 20
    15d3:	31          	sub
    15d4:	76          	loadsp 24
    15d5:	76          	loadsp 24
    15d6:	2b          	ashiftleft
    15d7:	7a          	loadsp 40
    15d8:	77          	loadsp 28
    15d9:	2b          	ashiftleft
    15da:	7c          	loadsp 48
    15db:	73          	loadsp 12
    15dc:	2a          	lshiftright
    15dd:	07          	or
    15de:	7c          	loadsp 48
    15df:	78          	loadsp 32
    15e0:	2b          	ashiftleft
    15e1:	72          	loadsp 8
    15e2:	90          	im 16
    15e3:	2a          	lshiftright
    15e4:	73          	loadsp 12
    15e5:	83          	im 3
    15e6:	ff          	im -1
    15e7:	ff          	im -1
    15e8:	06          	and
    15e9:	71          	loadsp 4
    15ea:	58          	storesp 32
    15eb:	7e          	loadsp 56
    15ec:	76          	loadsp 24
    15ed:	2a          	lshiftright
    15ee:	57          	storesp 28
    15ef:	42          	storesp 72
    15f0:	40          	storesp 64
    15f1:	5d          	storesp 52
    15f2:	5d          	storesp 52
    15f3:	57          	storesp 28
    15f4:	58          	storesp 32
    15f5:	81          	im 1
    15f6:	a3          	im 35
    15f7:	3f          	callpcrel
    15f8:	80          	im 0
    15f9:	08          	load
    15fa:	57          	storesp 28
    15fb:	81          	im 1
    15fc:	8d          	im 13
    15fd:	3f          	callpcrel
    15fe:	80          	im 0
    15ff:	08          	load
    1600:	80          	im 0
    1601:	08          	load
    1602:	7e          	loadsp 56
    1603:	29          	mult
    1604:	78          	loadsp 32
    1605:	90          	im 16
    1606:	2b          	ashiftleft
    1607:	7d          	loadsp 52
    1608:	90          	im 16
    1609:	2a          	lshiftright
    160a:	07          	or
    160b:	56          	storesp 24
    160c:	56          	storesp 24
    160d:	59          	storesp 36
    160e:	73          	loadsp 12
    160f:	75          	loadsp 20
    1610:	27          	ulessthanorequal
    1611:	99          	im 25
    1612:	38          	neqbranch
    1613:	80          	im 0
    1614:	08          	load
    1615:	ff          	im -1
    1616:	05          	add
    1617:	76          	loadsp 24
    1618:	15          	addsp 20
    1619:	55          	storesp 20
    161a:	59          	storesp 36
    161b:	75          	loadsp 20
    161c:	74          	loadsp 16
    161d:	26          	ulessthan
    161e:	8c          	im 12
    161f:	38          	neqbranch
    1620:	73          	loadsp 12
    1621:	75          	loadsp 20
    1622:	27          	ulessthanorequal
    1623:	87          	im 7
    1624:	38          	neqbranch
    1625:	ff          	im -1
    1626:	19          	addsp 36
    1627:	76          	loadsp 24
    1628:	15          	addsp 20
    1629:	55          	storesp 20
    162a:	59          	storesp 36

0000162b <.L47>:
    162b:	7b          	loadsp 44
    162c:	52          	storesp 8
    162d:	73          	loadsp 12
    162e:	75          	loadsp 20
    162f:	31          	sub
    1630:	51          	storesp 4
    1631:	80          	im 0
    1632:	e7          	im -25
    1633:	3f          	callpcrel
    1634:	80          	im 0
    1635:	08          	load
    1636:	55          	storesp 20
    1637:	80          	im 0
    1638:	d1          	im -47
    1639:	3f          	callpcrel
    163a:	80          	im 0
    163b:	08          	load
    163c:	80          	im 0
    163d:	08          	load
    163e:	7e          	loadsp 56
    163f:	29          	mult
    1640:	7c          	loadsp 48
    1641:	83          	im 3
    1642:	ff          	im -1
    1643:	ff          	im -1
    1644:	06          	and
    1645:	70          	loadsp 0
    1646:	78          	loadsp 32
    1647:	90          	im 16
    1648:	2b          	ashiftleft
    1649:	07          	or
    164a:	51          	storesp 4
    164b:	56          	storesp 24
    164c:	58          	storesp 32
    164d:	58          	storesp 32
    164e:	73          	loadsp 12
    164f:	77          	loadsp 28
    1650:	27          	ulessthanorequal
    1651:	99          	im 25
    1652:	38          	neqbranch
    1653:	80          	im 0
    1654:	08          	load
    1655:	ff          	im -1
    1656:	05          	add
    1657:	76          	loadsp 24
    1658:	15          	addsp 20
    1659:	55          	storesp 20
    165a:	58          	storesp 32
    165b:	75          	loadsp 20
    165c:	74          	loadsp 16
    165d:	26          	ulessthan
    165e:	8c          	im 12
    165f:	38          	neqbranch
    1660:	73          	loadsp 12
    1661:	77          	loadsp 28
    1662:	27          	ulessthanorequal
    1663:	87          	im 7
    1664:	38          	neqbranch
    1665:	ff          	im -1
    1666:	18          	addsp 32
    1667:	76          	loadsp 24
    1668:	15          	addsp 20
    1669:	55          	storesp 20
    166a:	58          	storesp 32

0000166b <.L50>:
    166b:	78          	loadsp 32
    166c:	90          	im 16
    166d:	2b          	ashiftleft
    166e:	78          	loadsp 32
    166f:	07          	or
    1670:	74          	loadsp 16
    1671:	78          	loadsp 32
    1672:	31          	sub
    1673:	55          	storesp 20
    1674:	5b          	storesp 44
    1675:	fa          	im -6
    1676:	da          	im -38
    1677:	39          	poppcrel

00001678 <.L117>:
    1678:	ff          	im -1
    1679:	19          	addsp 36
    167a:	76          	loadsp 24
    167b:	15          	addsp 20
    167c:	55          	storesp 20
    167d:	59          	storesp 36
    167e:	fb          	im -5
    167f:	86          	im 6
    1680:	39          	poppcrel

00001681 <.L113>:
    1681:	ff          	im -1
    1682:	19          	addsp 36
    1683:	76          	loadsp 24
    1684:	15          	addsp 20
    1685:	55          	storesp 20
    1686:	59          	storesp 36
    1687:	f8          	im -8
    1688:	c0          	im -64
    1689:	39          	poppcrel

0000168a <__udivsi3>:
    168a:	70          	loadsp 0
    168b:	70          	loadsp 0
    168c:	70          	loadsp 0
    168d:	80          	im 0
    168e:	53          	storesp 12
    168f:	75          	loadsp 20
    1690:	52          	storesp 8
    1691:	74          	loadsp 16
    1692:	51          	storesp 4
    1693:	81          	im 1
    1694:	91          	im 17
    1695:	3f          	callpcrel
    1696:	50          	storesp 0
    1697:	50          	storesp 0
    1698:	50          	storesp 0
    1699:	04          	poppc

0000169a <__umodsi3>:
    169a:	70          	loadsp 0
    169b:	70          	loadsp 0
    169c:	70          	loadsp 0
    169d:	81          	im 1
    169e:	53          	storesp 12
    169f:	75          	loadsp 20
    16a0:	52          	storesp 8
    16a1:	74          	loadsp 16
    16a2:	51          	storesp 4
    16a3:	81          	im 1
    16a4:	81          	im 1
    16a5:	3f          	callpcrel
    16a6:	50          	storesp 0
    16a7:	50          	storesp 0
    16a8:	50          	storesp 0
    16a9:	04          	poppc

000016aa <__divsi3>:
    16aa:	fb          	im -5
    16ab:	3d          	pushspadd
    16ac:	0d          	popsp
    16ad:	77          	loadsp 28
    16ae:	79          	loadsp 36
    16af:	55          	storesp 20
    16b0:	55          	storesp 20
    16b1:	80          	im 0
    16b2:	56          	storesp 24
    16b3:	75          	loadsp 20
    16b4:	75          	loadsp 20
    16b5:	24          	lessthan
    16b6:	ab          	im 43
    16b7:	38          	neqbranch
    16b8:	80          	im 0
    16b9:	74          	loadsp 16
    16ba:	24          	lessthan
    16bb:	9d          	im 29
    16bc:	38          	neqbranch

000016bd <.L4>:
    16bd:	80          	im 0
    16be:	53          	storesp 12
    16bf:	73          	loadsp 12
    16c0:	52          	storesp 8
    16c1:	74          	loadsp 16
    16c2:	51          	storesp 4
    16c3:	80          	im 0
    16c4:	e1          	im -31
    16c5:	3f          	callpcrel
    16c6:	80          	im 0
    16c7:	08          	load
    16c8:	54          	storesp 16
    16c9:	75          	loadsp 20
    16ca:	80          	im 0
    16cb:	2e          	eq
    16cc:	85          	im 5
    16cd:	38          	neqbranch
    16ce:	80          	im 0
    16cf:	08          	load
    16d0:	30          	neg
    16d1:	54          	storesp 16

000016d2 <.L6>:
    16d2:	73          	loadsp 12
    16d3:	80          	im 0
    16d4:	0c          	store
    16d5:	87          	im 7
    16d6:	3d          	pushspadd
    16d7:	0d          	popsp
    16d8:	04          	poppc

000016d9 <.L9>:
    16d9:	73          	loadsp 12
    16da:	30          	neg
    16db:	76          	loadsp 24
    16dc:	81          	im 1
    16dd:	32          	xor
    16de:	57          	storesp 28
    16df:	54          	storesp 16
    16e0:	dc          	im -36
    16e1:	39          	poppcrel

000016e2 <.L8>:
    16e2:	74          	loadsp 16
    16e3:	30          	neg
    16e4:	55          	storesp 20
    16e5:	81          	im 1
    16e6:	56          	storesp 24
    16e7:	73          	loadsp 12
    16e8:	80          	im 0
    16e9:	25          	lessthanorequal
    16ea:	d2          	im -46
    16eb:	38          	neqbranch
    16ec:	ec          	im -20
    16ed:	39          	poppcrel

000016ee <__modsi3>:
    16ee:	fa          	im -6
    16ef:	3d          	pushspadd
    16f0:	0d          	popsp
    16f1:	78          	loadsp 32
    16f2:	7a          	loadsp 40
    16f3:	57          	storesp 28
    16f4:	55          	storesp 20
    16f5:	80          	im 0
    16f6:	57          	storesp 28
    16f7:	76          	loadsp 24
    16f8:	75          	loadsp 20
    16f9:	24          	lessthan
    16fa:	a4          	im 36
    16fb:	38          	neqbranch

000016fc <.L11>:
    16fc:	75          	loadsp 20
    16fd:	9f          	im 31
    16fe:	2c          	ashiftright
    16ff:	54          	storesp 16
    1700:	81          	im 1
    1701:	53          	storesp 12
    1702:	75          	loadsp 20
    1703:	74          	loadsp 16
    1704:	32          	xor
    1705:	74          	loadsp 16
    1706:	31          	sub
    1707:	52          	storesp 8
    1708:	74          	loadsp 16
    1709:	51          	storesp 4
    170a:	9b          	im 27
    170b:	3f          	callpcrel
    170c:	80          	im 0
    170d:	08          	load
    170e:	54          	storesp 16
    170f:	76          	loadsp 24
    1710:	80          	im 0
    1711:	2e          	eq
    1712:	85          	im 5
    1713:	38          	neqbranch
    1714:	80          	im 0
    1715:	08          	load
    1716:	30          	neg
    1717:	54          	storesp 16

00001718 <.L13>:
    1718:	73          	loadsp 12
    1719:	80          	im 0
    171a:	0c          	store
    171b:	88          	im 8
    171c:	3d          	pushspadd
    171d:	0d          	popsp
    171e:	04          	poppc

0000171f <.L15>:
    171f:	74          	loadsp 16
    1720:	30          	neg
    1721:	55          	storesp 20
    1722:	81          	im 1
    1723:	57          	storesp 28
    1724:	d7          	im -41
    1725:	39          	poppcrel

00001726 <udivmodsi4>:
    1726:	fc          	im -4
    1727:	3d          	pushspadd
    1728:	0d          	popsp
    1729:	76          	loadsp 24
    172a:	78          	loadsp 32
    172b:	53          	storesp 12
    172c:	54          	storesp 16
    172d:	81          	im 1
    172e:	53          	storesp 12
    172f:	80          	im 0
    1730:	74          	loadsp 16
    1731:	73          	loadsp 12
    1732:	26          	ulessthan
    1733:	52          	storesp 8
    1734:	55          	storesp 20
    1735:	72          	loadsp 8
    1736:	80          	im 0
    1737:	2e          	eq
    1738:	98          	im 24
    1739:	38          	neqbranch

0000173a <.L18>:
    173a:	70          	loadsp 0
    173b:	80          	im 0
    173c:	2e          	eq
    173d:	ab          	im 43
    173e:	38          	neqbranch
    173f:	80          	im 0
    1740:	72          	loadsp 8
    1741:	24          	lessthan
    1742:	a6          	im 38
    1743:	38          	neqbranch
    1744:	71          	loadsp 4
    1745:	10          	addsp 0
    1746:	73          	loadsp 12
    1747:	10          	addsp 0
    1748:	75          	loadsp 20
    1749:	72          	loadsp 8
    174a:	26          	ulessthan
    174b:	53          	storesp 12
    174c:	54          	storesp 16
    174d:	52          	storesp 8
    174e:	72          	loadsp 8
    174f:	ea          	im -22
    1750:	38          	neqbranch

00001751 <.L13>:
    1751:	73          	loadsp 12
    1752:	51          	storesp 4
    1753:	78          	loadsp 32
    1754:	83          	im 3
    1755:	38          	neqbranch
    1756:	74          	loadsp 16
    1757:	51          	storesp 4

00001758 <.L1>:
    1758:	70          	loadsp 0
    1759:	80          	im 0
    175a:	0c          	store
    175b:	86          	im 6
    175c:	3d          	pushspadd
    175d:	0d          	popsp
    175e:	04          	poppc

0000175f <.L9>:
    175f:	72          	loadsp 8
    1760:	0a          	flip
    1761:	10          	addsp 0
    1762:	0a          	flip
    1763:	72          	loadsp 8
    1764:	0a          	flip
    1765:	10          	addsp 0
    1766:	0a          	flip
    1767:	53          	storesp 12
    1768:	53          	storesp 12

00001769 <.L3>:
    1769:	72          	loadsp 8
    176a:	80          	im 0
    176b:	2e          	eq
    176c:	e4          	im -28
    176d:	38          	neqbranch
    176e:	71          	loadsp 4
    176f:	74          	loadsp 16
    1770:	26          	ulessthan
    1771:	ed          	im -19
    1772:	38          	neqbranch
    1773:	73          	loadsp 12
    1774:	72          	loadsp 8
    1775:	31          	sub
    1776:	75          	loadsp 20
    1777:	74          	loadsp 16
    1778:	07          	or
    1779:	74          	loadsp 16
    177a:	0a          	flip
    177b:	10          	addsp 0
    177c:	0a          	flip
    177d:	74          	loadsp 16
    177e:	0a          	flip
    177f:	10          	addsp 0
    1780:	0a          	flip
    1781:	55          	storesp 20
    1782:	55          	storesp 20
    1783:	56          	storesp 24
    1784:	54          	storesp 16
    1785:	e3          	im -29
    1786:	39          	poppcrel

00001787 <malloc>:
    1787:	70          	loadsp 0
    1788:	70          	loadsp 0

00001789 <.LM2>:
    1789:	73          	loadsp 12
    178a:	52          	storesp 8
    178b:	80          	im 0
    178c:	de          	im -34
    178d:	cc          	im -52
    178e:	08          	load
    178f:	51          	storesp 4
    1790:	93          	im 19
    1791:	3f          	callpcrel

00001792 <.LM3>:
    1792:	50          	storesp 0
    1793:	50          	storesp 0
    1794:	04          	poppc

00001795 <free>:
    1795:	70          	loadsp 0
    1796:	70          	loadsp 0

00001797 <.LM5>:
    1797:	73          	loadsp 12
    1798:	52          	storesp 8
    1799:	80          	im 0
    179a:	de          	im -34
    179b:	cc          	im -52
    179c:	08          	load
    179d:	51          	storesp 4
    179e:	90          	im 16
    179f:	ce          	im -50
    17a0:	3f          	callpcrel
    17a1:	50          	storesp 0
    17a2:	50          	storesp 0
    17a3:	04          	poppc

000017a4 <_malloc_r>:
    17a4:	f4          	im -12
    17a5:	3d          	pushspadd
    17a6:	0d          	popsp
    17a7:	7e          	loadsp 56
    17a8:	60          	loadsp 64

000017a9 <.LM2>:
    17a9:	8b          	im 11
    17aa:	11          	addsp 4
    17ab:	70          	loadsp 0
    17ac:	f8          	im -8
    17ad:	06          	and
    17ae:	5b          	storesp 44
    17af:	55          	storesp 20
    17b0:	55          	storesp 20
    17b1:	5d          	storesp 52
    17b2:	72          	loadsp 8
    17b3:	96          	im 22
    17b4:	26          	ulessthan
    17b5:	83          	im 3
    17b6:	38          	neqbranch
    17b7:	90          	im 16
    17b8:	58          	storesp 32

000017b9 <.L3>:
    17b9:	80          	im 0
    17ba:	78          	loadsp 32
    17bb:	24          	lessthan
    17bc:	74          	loadsp 16
    17bd:	79          	loadsp 36
    17be:	26          	ulessthan
    17bf:	07          	or
    17c0:	55          	storesp 20

000017c1 <.LM4>:
    17c1:	80          	im 0
    17c2:	54          	storesp 16

000017c3 <.LM5>:
    17c3:	74          	loadsp 16
    17c4:	74          	loadsp 16
    17c5:	2e          	eq
    17c6:	09          	not
    17c7:	81          	im 1
    17c8:	06          	and
    17c9:	80          	im 0
    17ca:	ca          	im -54
    17cb:	38          	neqbranch

000017cc <.LM6>:
    17cc:	7c          	loadsp 48
    17cd:	51          	storesp 4
    17ce:	8d          	im 13
    17cf:	9e          	im 30
    17d0:	3f          	callpcrel

000017d1 <.LM7>:
    17d1:	77          	loadsp 28
    17d2:	83          	im 3
    17d3:	f7          	im -9
    17d4:	26          	ulessthan
    17d5:	80          	im 0
    17d6:	c5          	im -59
    17d7:	38          	neqbranch

000017d8 <.LM8>:
    17d8:	77          	loadsp 28
    17d9:	83          	im 3
    17da:	2a          	lshiftright

000017db <.LM9>:
    17db:	70          	loadsp 0
    17dc:	10          	addsp 0
    17dd:	10          	addsp 0
    17de:	10          	addsp 0
    17df:	80          	im 0
    17e0:	d6          	im -42
    17e1:	c4          	im -60
    17e2:	05          	add

000017e3 <.LM10>:
    17e3:	8c          	im 12
    17e4:	11          	addsp 4
    17e5:	08          	load
    17e6:	58          	storesp 32
    17e7:	58          	storesp 32
    17e8:	54          	storesp 16

000017e9 <.LM11>:
    17e9:	75          	loadsp 20
    17ea:	77          	loadsp 28
    17eb:	2e          	eq
    17ec:	81          	im 1
    17ed:	f0          	im -16
    17ee:	38          	neqbranch

000017ef <.L103>:
    17ef:	84          	im 4
    17f0:	16          	addsp 24
    17f1:	08          	load
    17f2:	fc          	im -4
    17f3:	06          	and

000017f4 <.LM13>:
    17f4:	8c          	im 12
    17f5:	17          	addsp 28
    17f6:	08          	load
    17f7:	88          	im 8
    17f8:	18          	addsp 32
    17f9:	08          	load
    17fa:	71          	loadsp 4
    17fb:	8c          	im 12
    17fc:	12          	addsp 8
    17fd:	0c          	store
    17fe:	88          	im 8
    17ff:	12          	addsp 8
    1800:	0c          	store
    1801:	5b          	storesp 44

00001802 <.LM14>:
    1802:	76          	loadsp 24
    1803:	05          	add

00001804 <.LM15>:
    1804:	84          	im 4
    1805:	11          	addsp 4
    1806:	08          	load
    1807:	81          	im 1
    1808:	07          	or
    1809:	84          	im 4
    180a:	12          	addsp 8
    180b:	0c          	store
    180c:	53          	storesp 12

0000180d <.L144>:
    180d:	7c          	loadsp 48
    180e:	51          	storesp 4
    180f:	8c          	im 12
    1810:	de          	im -34
    1811:	3f          	callpcrel

00001812 <.LM17>:
    1812:	88          	im 8
    1813:	16          	addsp 24
    1814:	54          	storesp 16

00001815 <.L1>:
    1815:	73          	loadsp 12
    1816:	80          	im 0
    1817:	0c          	store
    1818:	8e          	im 14
    1819:	3d          	pushspadd
    181a:	0d          	popsp
    181b:	04          	poppc

0000181c <.L7>:
    181c:	77          	loadsp 28
    181d:	89          	im 9
    181e:	2a          	lshiftright
    181f:	78          	loadsp 32
    1820:	83          	im 3
    1821:	2a          	lshiftright
    1822:	58          	storesp 32
    1823:	54          	storesp 16
    1824:	73          	loadsp 12
    1825:	80          	im 0
    1826:	2e          	eq
    1827:	bf          	im 63
    1828:	38          	neqbranch
    1829:	77          	loadsp 28
    182a:	86          	im 6
    182b:	2a          	lshiftright
    182c:	b8          	im 56
    182d:	05          	add
    182e:	57          	storesp 28
    182f:	84          	im 4
    1830:	74          	loadsp 16
    1831:	27          	ulessthanorequal
    1832:	b4          	im 52
    1833:	38          	neqbranch
    1834:	80          	im 0
    1835:	db          	im -37
    1836:	14          	addsp 16
    1837:	57          	storesp 28
    1838:	94          	im 20
    1839:	74          	loadsp 16
    183a:	27          	ulessthanorequal
    183b:	ab          	im 43
    183c:	38          	neqbranch
    183d:	77          	loadsp 28
    183e:	8c          	im 12
    183f:	2a          	lshiftright
    1840:	80          	im 0
    1841:	ee          	im -18
    1842:	05          	add
    1843:	57          	storesp 28
    1844:	80          	im 0
    1845:	d4          	im -44
    1846:	74          	loadsp 16
    1847:	27          	ulessthanorequal
    1848:	9e          	im 30
    1849:	38          	neqbranch
    184a:	77          	loadsp 28
    184b:	8f          	im 15
    184c:	2a          	lshiftright
    184d:	80          	im 0
    184e:	f7          	im -9
    184f:	05          	add
    1850:	57          	storesp 28
    1851:	82          	im 2
    1852:	d4          	im -44
    1853:	74          	loadsp 16
    1854:	27          	ulessthanorequal
    1855:	91          	im 17
    1856:	38          	neqbranch
    1857:	77          	loadsp 28
    1858:	92          	im 18
    1859:	2a          	lshiftright
    185a:	80          	im 0
    185b:	fc          	im -4
    185c:	05          	add
    185d:	57          	storesp 28
    185e:	8a          	im 10
    185f:	d4          	im -44
    1860:	74          	loadsp 16
    1861:	27          	ulessthanorequal
    1862:	84          	im 4
    1863:	38          	neqbranch
    1864:	80          	im 0
    1865:	fe          	im -2
    1866:	57          	storesp 28

00001867 <.L12>:
    1867:	76          	loadsp 24
    1868:	10          	addsp 0
    1869:	10          	addsp 0
    186a:	10          	addsp 0
    186b:	80          	im 0
    186c:	d6          	im -42
    186d:	c4          	im -60
    186e:	05          	add

0000186f <.LM21>:
    186f:	8c          	im 12
    1870:	11          	addsp 4
    1871:	08          	load
    1872:	56          	storesp 24
    1873:	53          	storesp 12
    1874:	74          	loadsp 16
    1875:	73          	loadsp 12
    1876:	2e          	eq
    1877:	a3          	im 35
    1878:	38          	neqbranch

00001879 <.L149>:
    1879:	84          	im 4
    187a:	15          	addsp 20
    187b:	08          	load
    187c:	fc          	im -4
    187d:	06          	and

0000187e <.LM23>:
    187e:	70          	loadsp 0
    187f:	79          	loadsp 36
    1880:	31          	sub
    1881:	55          	storesp 20
    1882:	56          	storesp 24

00001883 <.LM24>:
    1883:	73          	loadsp 12
    1884:	8f          	im 15
    1885:	24          	lessthan
    1886:	88          	im 8
    1887:	e4          	im -28
    1888:	38          	neqbranch

00001889 <.LM25>:
    1889:	73          	loadsp 12
    188a:	80          	im 0
    188b:	25          	lessthanorequal
    188c:	88          	im 8
    188d:	e6          	im -26
    188e:	38          	neqbranch

0000188f <.LM26>:
    188f:	8c          	im 12
    1890:	15          	addsp 20
    1891:	08          	load
    1892:	55          	storesp 20
    1893:	74          	loadsp 16
    1894:	73          	loadsp 12
    1895:	2e          	eq
    1896:	09          	not
    1897:	81          	im 1
    1898:	06          	and
    1899:	df          	im -33
    189a:	38          	neqbranch

0000189b <.L24>:
    189b:	81          	im 1
    189c:	17          	addsp 28
    189d:	59          	storesp 36

0000189e <.L10>:
    189e:	80          	im 0
    189f:	d6          	im -42
    18a0:	d4          	im -44
    18a1:	08          	load
    18a2:	56          	storesp 24
    18a3:	75          	loadsp 20
    18a4:	80          	im 0
    18a5:	d6          	im -42
    18a6:	cc          	im -52
    18a7:	2e          	eq
    18a8:	82          	im 2
    18a9:	cc          	im -52
    18aa:	38          	neqbranch

000018ab <.LM29>:
    18ab:	84          	im 4
    18ac:	16          	addsp 24
    18ad:	08          	load
    18ae:	fc          	im -4
    18af:	06          	and

000018b0 <.LM30>:
    18b0:	70          	loadsp 0
    18b1:	79          	loadsp 36
    18b2:	31          	sub
    18b3:	55          	storesp 20
    18b4:	55          	storesp 20

000018b5 <.LM31>:
    18b5:	73          	loadsp 12
    18b6:	8f          	im 15
    18b7:	24          	lessthan
    18b8:	bb          	im 59
    18b9:	38          	neqbranch

000018ba <.LM32>:
    18ba:	80          	im 0
    18bb:	d6          	im -42
    18bc:	cc          	im -52
    18bd:	0b          	nop
    18be:	80          	im 0
    18bf:	d6          	im -42
    18c0:	d8          	im -40
    18c1:	0c          	store
    18c2:	80          	im 0
    18c3:	d6          	im -42
    18c4:	cc          	im -52
    18c5:	0b          	nop
    18c6:	80          	im 0
    18c7:	d6          	im -42
    18c8:	d4          	im -44
    18c9:	0c          	store

000018ca <.LM33>:
    18ca:	80          	im 0
    18cb:	74          	loadsp 16
    18cc:	24          	lessthan
    18cd:	80          	im 0
    18ce:	db          	im -37
    18cf:	38          	neqbranch

000018d0 <.LM34>:
    18d0:	74          	loadsp 16
    18d1:	16          	addsp 24
    18d2:	84          	im 4
    18d3:	11          	addsp 4
    18d4:	08          	load
    18d5:	81          	im 1
    18d6:	07          	or
    18d7:	84          	im 4
    18d8:	12          	addsp 8
    18d9:	0c          	store
    18da:	53          	storesp 12
    18db:	fe          	im -2
    18dc:	b0          	im 48
    18dd:	39          	poppcrel

000018de <.L148>:
    18de:	88          	im 8
    18df:	16          	addsp 24

000018e0 <.LM36>:
    18e0:	8c          	im 12
    18e1:	11          	addsp 4
    18e2:	08          	load
    18e3:	57          	storesp 28
    18e4:	59          	storesp 36

000018e5 <.LM37>:
    18e5:	75          	loadsp 20
    18e6:	79          	loadsp 36
    18e7:	2e          	eq
    18e8:	09          	not
    18e9:	81          	im 1
    18ea:	06          	and
    18eb:	fe          	im -2
    18ec:	82          	im 2
    18ed:	38          	neqbranch

000018ee <.LM38>:
    18ee:	82          	im 2
    18ef:	14          	addsp 16
    18f0:	59          	storesp 36
    18f1:	ff          	im -1
    18f2:	ab          	im 43
    18f3:	39          	poppcrel

000018f4 <.L150>:
    18f4:	77          	loadsp 28
    18f5:	16          	addsp 24

000018f6 <.LM40>:
    18f6:	78          	loadsp 32
    18f7:	81          	im 1
    18f8:	07          	or
    18f9:	84          	im 4
    18fa:	18          	addsp 32
    18fb:	0c          	store

000018fc <.LM41>:
    18fc:	70          	loadsp 0
    18fd:	80          	im 0
    18fe:	d6          	im -42
    18ff:	d8          	im -40
    1900:	0c          	store
    1901:	70          	loadsp 0
    1902:	80          	im 0
    1903:	d6          	im -42
    1904:	d4          	im -44
    1905:	0c          	store
    1906:	80          	im 0
    1907:	d6          	im -42
    1908:	cc          	im -52
    1909:	0b          	nop
    190a:	8c          	im 12
    190b:	12          	addsp 8
    190c:	0c          	store
    190d:	8c          	im 12
    190e:	11          	addsp 4
    190f:	08          	load
    1910:	88          	im 8
    1911:	12          	addsp 8
    1912:	0c          	store

00001913 <.LM42>:
    1913:	74          	loadsp 16
    1914:	81          	im 1
    1915:	07          	or
    1916:	84          	im 4
    1917:	12          	addsp 8
    1918:	0c          	store

00001919 <.LM43>:
    1919:	74          	loadsp 16
    191a:	05          	add
    191b:	74          	loadsp 16
    191c:	71          	loadsp 4
    191d:	0c          	store
    191e:	5b          	storesp 44

0000191f <.LM44>:
    191f:	7c          	loadsp 48
    1920:	51          	storesp 4
    1921:	8a          	im 10
    1922:	cc          	im -52
    1923:	3f          	callpcrel

00001924 <.LM45>:
    1924:	88          	im 8
    1925:	16          	addsp 24
    1926:	54          	storesp 16
    1927:	fd          	im -3
    1928:	ec          	im -20
    1929:	39          	poppcrel

0000192a <.L32>:
    192a:	83          	im 3
    192b:	ff          	im -1
    192c:	75          	loadsp 20
    192d:	27          	ulessthanorequal
    192e:	83          	im 3
    192f:	91          	im 17
    1930:	38          	neqbranch
    1931:	74          	loadsp 16
    1932:	89          	im 9
    1933:	2a          	lshiftright
    1934:	75          	loadsp 20
    1935:	83          	im 3
    1936:	2a          	lshiftright
    1937:	54          	storesp 16
    1938:	54          	storesp 16
    1939:	73          	loadsp 12
    193a:	80          	im 0
    193b:	2e          	eq
    193c:	bf          	im 63
    193d:	38          	neqbranch
    193e:	74          	loadsp 16
    193f:	86          	im 6
    1940:	2a          	lshiftright
    1941:	b8          	im 56
    1942:	05          	add
    1943:	53          	storesp 12
    1944:	84          	im 4
    1945:	74          	loadsp 16
    1946:	27          	ulessthanorequal
    1947:	b4          	im 52
    1948:	38          	neqbranch
    1949:	80          	im 0
    194a:	db          	im -37
    194b:	14          	addsp 16
    194c:	53          	storesp 12
    194d:	94          	im 20
    194e:	74          	loadsp 16
    194f:	27          	ulessthanorequal
    1950:	ab          	im 43
    1951:	38          	neqbranch
    1952:	74          	loadsp 16
    1953:	8c          	im 12
    1954:	2a          	lshiftright
    1955:	80          	im 0
    1956:	ee          	im -18
    1957:	05          	add
    1958:	53          	storesp 12
    1959:	80          	im 0
    195a:	d4          	im -44
    195b:	74          	loadsp 16
    195c:	27          	ulessthanorequal
    195d:	9e          	im 30
    195e:	38          	neqbranch
    195f:	74          	loadsp 16
    1960:	8f          	im 15
    1961:	2a          	lshiftright
    1962:	80          	im 0
    1963:	f7          	im -9
    1964:	05          	add
    1965:	53          	storesp 12
    1966:	82          	im 2
    1967:	d4          	im -44
    1968:	74          	loadsp 16
    1969:	27          	ulessthanorequal
    196a:	91          	im 17
    196b:	38          	neqbranch
    196c:	74          	loadsp 16
    196d:	92          	im 18
    196e:	2a          	lshiftright
    196f:	80          	im 0
    1970:	fc          	im -4
    1971:	05          	add
    1972:	53          	storesp 12
    1973:	8a          	im 10
    1974:	d4          	im -44
    1975:	74          	loadsp 16
    1976:	27          	ulessthanorequal
    1977:	84          	im 4
    1978:	38          	neqbranch
    1979:	80          	im 0
    197a:	fe          	im -2
    197b:	53          	storesp 12

0000197c <.L37>:
    197c:	72          	loadsp 8
    197d:	10          	addsp 0
    197e:	10          	addsp 0
    197f:	10          	addsp 0
    1980:	80          	im 0
    1981:	d6          	im -42
    1982:	c4          	im -60
    1983:	05          	add
    1984:	88          	im 8
    1985:	11          	addsp 4
    1986:	08          	load
    1987:	55          	storesp 20
    1988:	57          	storesp 28
    1989:	73          	loadsp 12
    198a:	77          	loadsp 28
    198b:	2e          	eq
    198c:	86          	im 6
    198d:	8b          	im 11
    198e:	38          	neqbranch

0000198f <.L111>:
    198f:	84          	im 4
    1990:	14          	addsp 16
    1991:	08          	load
    1992:	fc          	im -4
    1993:	06          	and
    1994:	5b          	storesp 44
    1995:	74          	loadsp 16
    1996:	7b          	loadsp 44
    1997:	27          	ulessthanorequal
    1998:	8d          	im 13
    1999:	38          	neqbranch
    199a:	88          	im 8
    199b:	14          	addsp 16
    199c:	08          	load
    199d:	54          	storesp 16
    199e:	73          	loadsp 12
    199f:	77          	loadsp 28
    19a0:	2e          	eq
    19a1:	09          	not
    19a2:	81          	im 1
    19a3:	06          	and
    19a4:	ea          	im -22
    19a5:	38          	neqbranch

000019a6 <.L52>:
    19a6:	8c          	im 12
    19a7:	14          	addsp 16
    19a8:	08          	load
    19a9:	80          	im 0
    19aa:	d6          	im -42
    19ab:	c4          	im -60
    19ac:	0b          	nop
    19ad:	84          	im 4
    19ae:	05          	add
    19af:	08          	load
    19b0:	71          	loadsp 4
    19b1:	8c          	im 12
    19b2:	19          	addsp 36
    19b3:	0c          	store
    19b4:	75          	loadsp 20
    19b5:	88          	im 8
    19b6:	19          	addsp 36
    19b7:	0c          	store
    19b8:	77          	loadsp 28
    19b9:	88          	im 8
    19ba:	13          	addsp 12
    19bb:	0c          	store
    19bc:	5c          	storesp 48
    19bd:	57          	storesp 28

000019be <.L140>:
    19be:	75          	loadsp 20
    19bf:	8c          	im 12
    19c0:	15          	addsp 20
    19c1:	0c          	store

000019c2 <.L30>:
    19c2:	78          	loadsp 32
    19c3:	53          	storesp 12
    19c4:	80          	im 0
    19c5:	79          	loadsp 36
    19c6:	24          	lessthan
    19c7:	83          	im 3
    19c8:	98          	im 24
    19c9:	38          	neqbranch

000019ca <.L55>:
    19ca:	72          	loadsp 8
    19cb:	82          	im 2
    19cc:	2c          	ashiftright
    19cd:	81          	im 1
    19ce:	71          	loadsp 4
    19cf:	2b          	ashiftleft
    19d0:	56          	storesp 24
    19d1:	56          	storesp 24
    19d2:	74          	loadsp 16
    19d3:	7b          	loadsp 44
    19d4:	26          	ulessthan
    19d5:	80          	im 0
    19d6:	ca          	im -54
    19d7:	38          	neqbranch

000019d8 <.LM48>:
    19d8:	7a          	loadsp 40
    19d9:	75          	loadsp 20
    19da:	06          	and
    19db:	57          	storesp 28
    19dc:	76          	loadsp 24
    19dd:	82          	im 2
    19de:	a3          	im 35
    19df:	38          	neqbranch

000019e0 <.LM49>:
    19e0:	78          	loadsp 32
    19e1:	fc          	im -4
    19e2:	06          	and
    19e3:	84          	im 4
    19e4:	05          	add
    19e5:	59          	storesp 36

000019e6 <.L141>:
    19e6:	74          	loadsp 16
    19e7:	10          	addsp 0

000019e8 <.LM51>:
    19e8:	70          	loadsp 0
    19e9:	7c          	loadsp 48
    19ea:	06          	and
    19eb:	55          	storesp 20
    19ec:	55          	storesp 20
    19ed:	73          	loadsp 12
    19ee:	82          	im 2
    19ef:	92          	im 18
    19f0:	38          	neqbranch

000019f1 <.LM52>:
    19f1:	84          	im 4
    19f2:	19          	addsp 36
    19f3:	59          	storesp 36
    19f4:	f1          	im -15
    19f5:	39          	poppcrel

000019f6 <.L112>:
    19f6:	80          	im 0
    19f7:	d6          	im -42
    19f8:	c4          	im -60
    19f9:	0b          	nop
    19fa:	84          	im 4
    19fb:	05          	add
    19fc:	08          	load

000019fd <.LM53>:
    19fd:	79          	loadsp 36
    19fe:	54          	storesp 16
    19ff:	5b          	storesp 44
    1a00:	78          	loadsp 32
    1a01:	80          	im 0
    1a02:	25          	lessthanorequal
    1a03:	c6          	im -58
    1a04:	38          	neqbranch
    1a05:	82          	im 2
    1a06:	da          	im -38
    1a07:	39          	poppcrel

00001a08 <.L120>:
    1a08:	74          	loadsp 16
    1a09:	09          	not
    1a0a:	7b          	loadsp 44
    1a0b:	06          	and
    1a0c:	70          	loadsp 0
    1a0d:	80          	im 0
    1a0e:	d6          	im -42
    1a0f:	c4          	im -60
    1a10:	0b          	nop
    1a11:	84          	im 4
    1a12:	05          	add
    1a13:	0c          	store
    1a14:	5b          	storesp 44

00001a15 <.L73>:
    1a15:	74          	loadsp 16
    1a16:	10          	addsp 0
    1a17:	55          	storesp 20
    1a18:	74          	loadsp 16
    1a19:	7b          	loadsp 44
    1a1a:	26          	ulessthan
    1a1b:	85          	im 5
    1a1c:	38          	neqbranch
    1a1d:	74          	loadsp 16
    1a1e:	85          	im 5
    1a1f:	bc          	im 60
    1a20:	38          	neqbranch

00001a21 <.L54>:
    1a21:	80          	im 0
    1a22:	d6          	im -42
    1a23:	c4          	im -60
    1a24:	0b          	nop
    1a25:	88          	im 8
    1a26:	05          	add
    1a27:	08          	load
    1a28:	70          	loadsp 0
    1a29:	84          	im 4
    1a2a:	12          	addsp 8
    1a2b:	08          	load
    1a2c:	fc          	im -4
    1a2d:	06          	and
    1a2e:	70          	loadsp 0
    1a2f:	7b          	loadsp 44
    1a30:	31          	sub

00001a31 <.LM57>:
    1a31:	7b          	loadsp 44
    1a32:	72          	loadsp 8
    1a33:	26          	ulessthan
    1a34:	8f          	im 15
    1a35:	72          	loadsp 8
    1a36:	25          	lessthanorequal
    1a37:	07          	or
    1a38:	5d          	storesp 52
    1a39:	57          	storesp 28
    1a3a:	5c          	storesp 48
    1a3b:	5c          	storesp 48
    1a3c:	55          	storesp 20
    1a3d:	78          	loadsp 32
    1a3e:	80          	im 0
    1a3f:	2e          	eq
    1a40:	80          	im 0
    1a41:	d9          	im -39
    1a42:	38          	neqbranch

00001a43 <.LBB2>:
    1a43:	79          	loadsp 36
    1a44:	15          	addsp 20

00001a45 <.LM59>:
    1a45:	80          	im 0
    1a46:	d6          	im -42
    1a47:	bc          	im 60
    1a48:	08          	load
    1a49:	19          	addsp 36
    1a4a:	90          	im 16
    1a4b:	11          	addsp 4
    1a4c:	59          	storesp 36
    1a4d:	54          	storesp 16
    1a4e:	56          	storesp 24

00001a4f <.LM60>:
    1a4f:	80          	im 0
    1a50:	d6          	im -42
    1a51:	b8          	im 56
    1a52:	08          	load
    1a53:	ff          	im -1
    1a54:	2e          	eq
    1a55:	88          	im 8
    1a56:	38          	neqbranch

00001a57 <.LM61>:
    1a57:	a0          	im 32
    1a58:	8f          	im 15
    1a59:	13          	addsp 12
    1a5a:	e0          	im -32
    1a5b:	80          	im 0
    1a5c:	06          	and
    1a5d:	57          	storesp 28

00001a5e <.L84>:
    1a5e:	76          	loadsp 24
    1a5f:	52          	storesp 8
    1a60:	7c          	loadsp 48
    1a61:	51          	storesp 4
    1a62:	88          	im 8
    1a63:	8c          	im 12
    1a64:	3f          	callpcrel
    1a65:	80          	im 0
    1a66:	08          	load
    1a67:	54          	storesp 16

00001a68 <.LM63>:
    1a68:	80          	im 0
    1a69:	08          	load
    1a6a:	ff          	im -1
    1a6b:	2e          	eq
    1a6c:	90          	im 16
    1a6d:	38          	neqbranch
    1a6e:	80          	im 0
    1a6f:	08          	load
    1a70:	76          	loadsp 24
    1a71:	27          	ulessthanorequal
    1a72:	82          	im 2
    1a73:	a7          	im 39
    1a74:	38          	neqbranch
    1a75:	74          	loadsp 16
    1a76:	80          	im 0
    1a77:	d6          	im -42
    1a78:	c4          	im -60
    1a79:	2e          	eq
    1a7a:	82          	im 2
    1a7b:	9f          	im 31
    1a7c:	38          	neqbranch

00001a7d <.L114>:
    1a7d:	80          	im 0
    1a7e:	d6          	im -42
    1a7f:	c4          	im -60
    1a80:	0b          	nop
    1a81:	88          	im 8
    1a82:	05          	add
    1a83:	08          	load
    1a84:	55          	storesp 20

00001a85 <.L87>:
    1a85:	84          	im 4
    1a86:	15          	addsp 20
    1a87:	08          	load
    1a88:	fc          	im -4
    1a89:	06          	and
    1a8a:	70          	loadsp 0
    1a8b:	79          	loadsp 36
    1a8c:	31          	sub

00001a8d <.LM65>:
    1a8d:	79          	loadsp 36
    1a8e:	72          	loadsp 8
    1a8f:	26          	ulessthan
    1a90:	8f          	im 15
    1a91:	72          	loadsp 8
    1a92:	25          	lessthanorequal
    1a93:	07          	or
    1a94:	5d          	storesp 52
    1a95:	55          	storesp 20
    1a96:	5a          	storesp 40
    1a97:	7a          	loadsp 40
    1a98:	83          	im 3
    1a99:	f2          	im -14
    1a9a:	38          	neqbranch

00001a9b <.L81>:
    1a9b:	77          	loadsp 28
    1a9c:	81          	im 1
    1a9d:	07          	or
    1a9e:	84          	im 4
    1a9f:	16          	addsp 24
    1aa0:	0c          	store

00001aa1 <.LM67>:
    1aa1:	77          	loadsp 28
    1aa2:	15          	addsp 20
    1aa3:	70          	loadsp 0
    1aa4:	80          	im 0
    1aa5:	d6          	im -42
    1aa6:	c4          	im -60
    1aa7:	0b          	nop
    1aa8:	88          	im 8
    1aa9:	05          	add
    1aaa:	0c          	store

00001aab <.LM68>:
    1aab:	74          	loadsp 16
    1aac:	81          	im 1
    1aad:	07          	or
    1aae:	84          	im 4
    1aaf:	12          	addsp 8
    1ab0:	0c          	store
    1ab1:	56          	storesp 24

00001ab2 <.LM69>:
    1ab2:	7c          	loadsp 48
    1ab3:	51          	storesp 4
    1ab4:	87          	im 7
    1ab5:	b9          	im 57
    1ab6:	3f          	callpcrel

00001ab7 <.LM70>:
    1ab7:	88          	im 8
    1ab8:	15          	addsp 20
    1ab9:	54          	storesp 16

00001aba <.L163>:
    1aba:	73          	loadsp 12
    1abb:	80          	im 0
    1abc:	0c          	store
    1abd:	8e          	im 14
    1abe:	3d          	pushspadd
    1abf:	0d          	popsp
    1ac0:	04          	poppc

00001ac1 <.L151>:
    1ac1:	74          	loadsp 16
    1ac2:	83          	im 3
    1ac3:	2a          	lshiftright
    1ac4:	70          	loadsp 0
    1ac5:	54          	storesp 16
    1ac6:	54          	storesp 16
    1ac7:	80          	im 0
    1ac8:	74          	loadsp 16
    1ac9:	24          	lessthan
    1aca:	81          	im 1
    1acb:	9b          	im 27
    1acc:	38          	neqbranch
    1acd:	72          	loadsp 8
    1ace:	82          	im 2
    1acf:	2c          	ashiftright
    1ad0:	81          	im 1
    1ad1:	71          	loadsp 4
    1ad2:	2b          	ashiftleft
    1ad3:	80          	im 0
    1ad4:	d6          	im -42
    1ad5:	c8          	im -56
    1ad6:	08          	load
    1ad7:	07          	or
    1ad8:	70          	loadsp 0
    1ad9:	80          	im 0
    1ada:	d6          	im -42
    1adb:	c4          	im -60
    1adc:	0b          	nop
    1add:	84          	im 4
    1ade:	05          	add
    1adf:	0c          	store
    1ae0:	75          	loadsp 20
    1ae1:	10          	addsp 0
    1ae2:	10          	addsp 0
    1ae3:	10          	addsp 0
    1ae4:	80          	im 0
    1ae5:	d6          	im -42
    1ae6:	c4          	im -60
    1ae7:	05          	add
    1ae8:	88          	im 8
    1ae9:	11          	addsp 4
    1aea:	08          	load
    1aeb:	71          	loadsp 4
    1aec:	8c          	im 12
    1aed:	1b          	addsp 44
    1aee:	0c          	store
    1aef:	70          	loadsp 0
    1af0:	88          	im 8
    1af1:	1b          	addsp 44
    1af2:	0c          	store
    1af3:	79          	loadsp 36
    1af4:	88          	im 8
    1af5:	13          	addsp 12
    1af6:	0c          	store
    1af7:	57          	storesp 28
    1af8:	55          	storesp 20
    1af9:	5c          	storesp 48
    1afa:	55          	storesp 20

00001afb <.L157>:
    1afb:	75          	loadsp 20
    1afc:	8c          	im 12
    1afd:	15          	addsp 20
    1afe:	0c          	store
    1aff:	fd          	im -3
    1b00:	c1          	im -63
    1b01:	39          	poppcrel

00001b02 <.L138>:
    1b02:	78          	loadsp 32

00001b03 <.LM74>:
    1b03:	79          	loadsp 36
    1b04:	10          	addsp 0
    1b05:	10          	addsp 0
    1b06:	10          	addsp 0
    1b07:	80          	im 0
    1b08:	d6          	im -42
    1b09:	c4          	im -60
    1b0a:	05          	add
    1b0b:	70          	loadsp 0
    1b0c:	56          	storesp 24
    1b0d:	5b          	storesp 44
    1b0e:	5c          	storesp 48

00001b0f <.L62>:
    1b0f:	8c          	im 12
    1b10:	14          	addsp 16
    1b11:	08          	load
    1b12:	56          	storesp 24
    1b13:	75          	loadsp 20
    1b14:	74          	loadsp 16
    1b15:	2e          	eq
    1b16:	a3          	im 35
    1b17:	38          	neqbranch

00001b18 <.L156>:
    1b18:	84          	im 4
    1b19:	16          	addsp 24
    1b1a:	08          	load
    1b1b:	fc          	im -4
    1b1c:	06          	and

00001b1d <.LM77>:
    1b1d:	70          	loadsp 0
    1b1e:	79          	loadsp 36
    1b1f:	31          	sub
    1b20:	58          	storesp 32
    1b21:	53          	storesp 12

00001b22 <.LM78>:
    1b22:	76          	loadsp 24
    1b23:	8f          	im 15
    1b24:	24          	lessthan
    1b25:	83          	im 3
    1b26:	f1          	im -15
    1b27:	38          	neqbranch

00001b28 <.LM79>:
    1b28:	76          	loadsp 24
    1b29:	80          	im 0
    1b2a:	25          	lessthanorequal
    1b2b:	84          	im 4
    1b2c:	af          	im 47
    1b2d:	38          	neqbranch

00001b2e <.LM80>:
    1b2e:	8c          	im 12
    1b2f:	16          	addsp 24
    1b30:	08          	load
    1b31:	56          	storesp 24
    1b32:	75          	loadsp 20
    1b33:	74          	loadsp 16
    1b34:	2e          	eq
    1b35:	09          	not
    1b36:	81          	im 1
    1b37:	06          	and
    1b38:	df          	im -33
    1b39:	38          	neqbranch

00001b3a <.L108>:
    1b3a:	88          	im 8
    1b3b:	14          	addsp 16

00001b3c <.LM82>:
    1b3c:	81          	im 1
    1b3d:	1a          	addsp 40
    1b3e:	70          	loadsp 0
    1b3f:	83          	im 3
    1b40:	06          	and
    1b41:	55          	storesp 20
    1b42:	5a          	storesp 40
    1b43:	54          	storesp 16
    1b44:	72          	loadsp 8
    1b45:	c9          	im -55
    1b46:	38          	neqbranch

00001b47 <.L128>:
    1b47:	7b          	loadsp 44
    1b48:	83          	im 3
    1b49:	06          	and
    1b4a:	56          	storesp 24
    1b4b:	75          	loadsp 20
    1b4c:	80          	im 0
    1b4d:	2e          	eq
    1b4e:	fd          	im -3
    1b4f:	b8          	im 56
    1b50:	38          	neqbranch

00001b51 <.LM84>:
    1b51:	ff          	im -1
    1b52:	1c          	addsp 48

00001b53 <.LM85>:
    1b53:	f8          	im -8
    1b54:	1b          	addsp 44
    1b55:	5b          	storesp 44
    1b56:	5c          	storesp 48

00001b57 <.LM86>:
    1b57:	88          	im 8
    1b58:	1a          	addsp 40
    1b59:	08          	load
    1b5a:	7a          	loadsp 40
    1b5b:	2e          	eq
    1b5c:	ea          	im -22
    1b5d:	38          	neqbranch
    1b5e:	fd          	im -3
    1b5f:	b5          	im 53
    1b60:	39          	poppcrel

00001b61 <.L153>:
    1b61:	83          	im 3
    1b62:	19          	addsp 36
    1b63:	53          	storesp 12
    1b64:	fc          	im -4
    1b65:	e4          	im -28
    1b66:	39          	poppcrel

00001b67 <.L155>:
    1b67:	83          	im 3
    1b68:	14          	addsp 16
    1b69:	70          	loadsp 0
    1b6a:	82          	im 2
    1b6b:	2c          	ashiftright
    1b6c:	81          	im 1
    1b6d:	71          	loadsp 4
    1b6e:	2b          	ashiftleft
    1b6f:	80          	im 0
    1b70:	d6          	im -42
    1b71:	c8          	im -56
    1b72:	08          	load
    1b73:	07          	or
    1b74:	70          	loadsp 0
    1b75:	80          	im 0
    1b76:	d6          	im -42
    1b77:	c4          	im -60
    1b78:	0b          	nop
    1b79:	84          	im 4
    1b7a:	05          	add
    1b7b:	0c          	store
    1b7c:	76          	loadsp 24
    1b7d:	10          	addsp 0
    1b7e:	10          	addsp 0
    1b7f:	10          	addsp 0
    1b80:	80          	im 0
    1b81:	d6          	im -42
    1b82:	c4          	im -60
    1b83:	05          	add
    1b84:	88          	im 8
    1b85:	11          	addsp 4
    1b86:	08          	load
    1b87:	71          	loadsp 4
    1b88:	8c          	im 12
    1b89:	1c          	addsp 48
    1b8a:	0c          	store
    1b8b:	70          	loadsp 0
    1b8c:	88          	im 8
    1b8d:	1c          	addsp 48
    1b8e:	0c          	store
    1b8f:	7a          	loadsp 40
    1b90:	88          	im 8
    1b91:	13          	addsp 12
    1b92:	0c          	store
    1b93:	58          	storesp 32
    1b94:	53          	storesp 12
    1b95:	5d          	storesp 52
    1b96:	56          	storesp 24
    1b97:	53          	storesp 12
    1b98:	fe          	im -2
    1b99:	e1          	im -31
    1b9a:	39          	poppcrel

00001b9b <.L85>:
    1b9b:	80          	im 0
    1b9c:	d6          	im -42
    1b9d:	88          	im 8
    1b9e:	08          	load
    1b9f:	17          	addsp 28
    1ba0:	59          	storesp 36

00001ba1 <.LM90>:
    1ba1:	80          	im 0
    1ba2:	08          	load
    1ba3:	76          	loadsp 24
    1ba4:	2e          	eq
    1ba5:	81          	im 1
    1ba6:	8b          	im 11
    1ba7:	38          	neqbranch

00001ba8 <.L88>:
    1ba8:	80          	im 0
    1ba9:	d6          	im -42
    1baa:	b8          	im 56
    1bab:	08          	load
    1bac:	ff          	im -1
    1bad:	2e          	eq
    1bae:	84          	im 4
    1baf:	8e          	im 14
    1bb0:	38          	neqbranch

00001bb1 <.LM92>:
    1bb1:	73          	loadsp 12
    1bb2:	76          	loadsp 24
    1bb3:	31          	sub
    1bb4:	19          	addsp 36
    1bb5:	80          	im 0
    1bb6:	d6          	im -42
    1bb7:	88          	im 8
    1bb8:	0c          	store

00001bb9 <.L91>:
    1bb9:	73          	loadsp 12
    1bba:	87          	im 7
    1bbb:	06          	and

00001bbc <.LM94>:
    1bbc:	70          	loadsp 0
    1bbd:	56          	storesp 24
    1bbe:	53          	storesp 12

00001bbf <.LM95>:
    1bbf:	72          	loadsp 8
    1bc0:	80          	im 0
    1bc1:	2e          	eq
    1bc2:	88          	im 8
    1bc3:	38          	neqbranch

00001bc4 <.LM96>:
    1bc4:	88          	im 8
    1bc5:	73          	loadsp 12
    1bc6:	31          	sub

00001bc7 <.LM97>:
    1bc7:	70          	loadsp 0
    1bc8:	15          	addsp 20
    1bc9:	55          	storesp 20
    1bca:	55          	storesp 20

00001bcb <.L93>:
    1bcb:	76          	loadsp 24
    1bcc:	14          	addsp 16
    1bcd:	9f          	im 31
    1bce:	ff          	im -1
    1bcf:	06          	and
    1bd0:	a0          	im 32
    1bd1:	80          	im 0
    1bd2:	71          	loadsp 4
    1bd3:	31          	sub
    1bd4:	16          	addsp 24

00001bd5 <.LM99>:
    1bd5:	70          	loadsp 0
    1bd6:	54          	storesp 16
    1bd7:	7e          	loadsp 56
    1bd8:	53          	storesp 12
    1bd9:	51          	storesp 4
    1bda:	53          	storesp 12
    1bdb:	85          	im 5
    1bdc:	93          	im 19
    1bdd:	3f          	callpcrel
    1bde:	80          	im 0
    1bdf:	08          	load
    1be0:	56          	storesp 24

00001be1 <.LM100>:
    1be1:	80          	im 0
    1be2:	08          	load
    1be3:	ff          	im -1
    1be4:	2e          	eq
    1be5:	81          	im 1
    1be6:	9e          	im 30
    1be7:	38          	neqbranch

00001be8 <.L94>:
    1be8:	80          	im 0
    1be9:	d6          	im -42
    1bea:	88          	im 8
    1beb:	08          	load
    1bec:	13          	addsp 12
    1bed:	70          	loadsp 0
    1bee:	80          	im 0
    1bef:	d6          	im -42
    1bf0:	88          	im 8
    1bf1:	0c          	store

00001bf2 <.LM102>:
    1bf2:	74          	loadsp 16
    1bf3:	75          	loadsp 20
    1bf4:	80          	im 0
    1bf5:	d6          	im -42
    1bf6:	c4          	im -60
    1bf7:	0b          	nop
    1bf8:	88          	im 8
    1bf9:	05          	add
    1bfa:	0c          	store

00001bfb <.LM103>:
    1bfb:	77          	loadsp 28
    1bfc:	76          	loadsp 24
    1bfd:	31          	sub
    1bfe:	15          	addsp 20

00001bff <.LM104>:
    1bff:	81          	im 1
    1c00:	07          	or
    1c01:	55          	storesp 20
    1c02:	56          	storesp 24
    1c03:	59          	storesp 36

00001c04 <.LM105>:
    1c04:	7a          	loadsp 40
    1c05:	80          	im 0
    1c06:	d6          	im -42
    1c07:	c4          	im -60
    1c08:	2e          	eq
    1c09:	83          	im 3
    1c0a:	c0          	im -64
    1c0b:	38          	neqbranch

00001c0c <.LM106>:
    1c0c:	79          	loadsp 36
    1c0d:	8f          	im 15
    1c0e:	26          	ulessthan
    1c0f:	82          	im 2
    1c10:	ef          	im -17
    1c11:	38          	neqbranch

00001c12 <.LM107>:
    1c12:	81          	im 1
    1c13:	0b          	nop
    1c14:	84          	im 4
    1c15:	15          	addsp 20
    1c16:	0c          	store

00001c17 <.LM108>:
    1c17:	84          	im 4
    1c18:	15          	addsp 20
    1c19:	08          	load
    1c1a:	fc          	im -4
    1c1b:	06          	and
    1c1c:	70          	loadsp 0
    1c1d:	79          	loadsp 36
    1c1e:	31          	sub

00001c1f <.LM109>:
    1c1f:	79          	loadsp 36
    1c20:	72          	loadsp 8
    1c21:	26          	ulessthan
    1c22:	8f          	im 15
    1c23:	72          	loadsp 8
    1c24:	25          	lessthanorequal
    1c25:	07          	or
    1c26:	5d          	storesp 52
    1c27:	55          	storesp 20
    1c28:	5a          	storesp 40
    1c29:	7a          	loadsp 40
    1c2a:	80          	im 0
    1c2b:	2e          	eq
    1c2c:	fc          	im -4
    1c2d:	ed          	im -19
    1c2e:	38          	neqbranch
    1c2f:	80          	im 0
    1c30:	db          	im -37
    1c31:	39          	poppcrel

00001c32 <.L158>:
    1c32:	80          	im 0
    1c33:	08          	load
    1c34:	9f          	im 31
    1c35:	ff          	im -1
    1c36:	06          	and
    1c37:	55          	storesp 20
    1c38:	74          	loadsp 16
    1c39:	fe          	im -2
    1c3a:	ed          	im -19
    1c3b:	38          	neqbranch
    1c3c:	78          	loadsp 32
    1c3d:	80          	im 0
    1c3e:	d6          	im -42
    1c3f:	88          	im 8
    1c40:	0c          	store

00001c41 <.LM111>:
    1c41:	80          	im 0
    1c42:	d6          	im -42
    1c43:	c4          	im -60
    1c44:	0b          	nop
    1c45:	88          	im 8
    1c46:	05          	add
    1c47:	08          	load
    1c48:	7a          	loadsp 40
    1c49:	18          	addsp 32
    1c4a:	81          	im 1
    1c4b:	07          	or
    1c4c:	84          	im 4
    1c4d:	12          	addsp 8
    1c4e:	0c          	store
    1c4f:	55          	storesp 20

00001c50 <.L89>:
    1c50:	80          	im 0
    1c51:	d6          	im -42
    1c52:	b4          	im 52
    1c53:	08          	load
    1c54:	79          	loadsp 36
    1c55:	27          	ulessthanorequal
    1c56:	86          	im 6
    1c57:	38          	neqbranch

00001c58 <.LM113>:
    1c58:	78          	loadsp 32
    1c59:	80          	im 0
    1c5a:	d6          	im -42
    1c5b:	b4          	im 52
    1c5c:	0c          	store

00001c5d <.L98>:
    1c5d:	80          	im 0
    1c5e:	d6          	im -42
    1c5f:	b0          	im 48
    1c60:	08          	load
    1c61:	79          	loadsp 36
    1c62:	27          	ulessthanorequal
    1c63:	fc          	im -4
    1c64:	a0          	im 32
    1c65:	38          	neqbranch

00001c66 <.LM115>:
    1c66:	78          	loadsp 32
    1c67:	80          	im 0
    1c68:	d6          	im -42
    1c69:	b0          	im 48
    1c6a:	0c          	store

00001c6b <.LM116>:
    1c6b:	84          	im 4
    1c6c:	15          	addsp 20
    1c6d:	08          	load
    1c6e:	fc          	im -4
    1c6f:	06          	and
    1c70:	70          	loadsp 0
    1c71:	79          	loadsp 36
    1c72:	31          	sub

00001c73 <.LM117>:
    1c73:	79          	loadsp 36
    1c74:	72          	loadsp 8
    1c75:	26          	ulessthan
    1c76:	8f          	im 15
    1c77:	72          	loadsp 8
    1c78:	25          	lessthanorequal
    1c79:	07          	or
    1c7a:	5d          	storesp 52
    1c7b:	55          	storesp 20
    1c7c:	5a          	storesp 40
    1c7d:	7a          	loadsp 40
    1c7e:	80          	im 0
    1c7f:	2e          	eq
    1c80:	fc          	im -4
    1c81:	99          	im 25
    1c82:	38          	neqbranch
    1c83:	88          	im 8
    1c84:	39          	poppcrel

00001c85 <.L160>:
    1c85:	80          	im 0

00001c86 <.LM119>:
    1c86:	74          	loadsp 16
    1c87:	57          	storesp 28
    1c88:	53          	storesp 12
    1c89:	fe          	im -2
    1c8a:	dd          	im -35
    1c8b:	39          	poppcrel

00001c8c <.L154>:
    1c8c:	7c          	loadsp 48
    1c8d:	51          	storesp 4
    1c8e:	83          	im 3
    1c8f:	df          	im -33
    1c90:	3f          	callpcrel

00001c91 <.LM121>:
    1c91:	80          	im 0

00001c92 <.LM122>:
    1c92:	0b          	nop
    1c93:	80          	im 0
    1c94:	0c          	store
    1c95:	8e          	im 14
    1c96:	3d          	pushspadd
    1c97:	0d          	popsp
    1c98:	04          	poppc

00001c99 <.L152>:
    1c99:	80          	im 0
    1c9a:	73          	loadsp 12
    1c9b:	24          	lessthan
    1c9c:	a5          	im 37
    1c9d:	38          	neqbranch
    1c9e:	72          	loadsp 8
    1c9f:	82          	im 2
    1ca0:	2c          	ashiftright
    1ca1:	81          	im 1
    1ca2:	71          	loadsp 4
    1ca3:	2b          	ashiftleft
    1ca4:	80          	im 0
    1ca5:	d6          	im -42
    1ca6:	c8          	im -56
    1ca7:	08          	load
    1ca8:	07          	or
    1ca9:	70          	loadsp 0
    1caa:	80          	im 0
    1cab:	d6          	im -42
    1cac:	c4          	im -60
    1cad:	0b          	nop
    1cae:	84          	im 4
    1caf:	05          	add
    1cb0:	0c          	store
    1cb1:	5c          	storesp 48
    1cb2:	5a          	storesp 40

00001cb3 <.L162>:
    1cb3:	76          	loadsp 24
    1cb4:	8c          	im 12
    1cb5:	17          	addsp 28
    1cb6:	0c          	store
    1cb7:	73          	loadsp 12
    1cb8:	88          	im 8
    1cb9:	17          	addsp 28
    1cba:	0c          	store
    1cbb:	75          	loadsp 20
    1cbc:	88          	im 8
    1cbd:	18          	addsp 32
    1cbe:	0c          	store
    1cbf:	f9          	im -7
    1cc0:	fd          	im -3
    1cc1:	39          	poppcrel

00001cc2 <.L161>:
    1cc2:	83          	im 3
    1cc3:	13          	addsp 12
    1cc4:	70          	loadsp 0
    1cc5:	82          	im 2
    1cc6:	2c          	ashiftright
    1cc7:	81          	im 1
    1cc8:	71          	loadsp 4
    1cc9:	2b          	ashiftleft
    1cca:	80          	im 0
    1ccb:	d6          	im -42
    1ccc:	c8          	im -56
    1ccd:	08          	load
    1cce:	07          	or
    1ccf:	70          	loadsp 0
    1cd0:	80          	im 0
    1cd1:	d6          	im -42
    1cd2:	c4          	im -60
    1cd3:	0b          	nop
    1cd4:	84          	im 4
    1cd5:	05          	add
    1cd6:	0c          	store
    1cd7:	5d          	storesp 52
    1cd8:	5b          	storesp 44
    1cd9:	53          	storesp 12
    1cda:	d8          	im -40
    1cdb:	39          	poppcrel

00001cdc <.L143>:
    1cdc:	7a          	loadsp 40
    1cdd:	75          	loadsp 20
    1cde:	06          	and
    1cdf:	5c          	storesp 48
    1ce0:	7b          	loadsp 44
    1ce1:	fc          	im -4
    1ce2:	9f          	im 31
    1ce3:	38          	neqbranch

00001ce4 <.LM125>:
    1ce4:	84          	im 4
    1ce5:	19          	addsp 36

00001ce6 <.LM126>:
    1ce6:	75          	loadsp 20
    1ce7:	10          	addsp 0
    1ce8:	56          	storesp 24
    1ce9:	59          	storesp 36
    1cea:	f1          	im -15
    1ceb:	39          	poppcrel

00001cec <.L116>:
    1cec:	ff          	im -1
    1ced:	17          	addsp 28

00001cee <.LM128>:
    1cee:	81          	im 1
    1cef:	05          	add
    1cf0:	59          	storesp 36
    1cf1:	f7          	im -9
    1cf2:	ab          	im 43
    1cf3:	39          	poppcrel

00001cf4 <.L117>:
    1cf4:	8c          	im 12
    1cf5:	15          	addsp 20
    1cf6:	08          	load
    1cf7:	88          	im 8
    1cf8:	16          	addsp 24
    1cf9:	08          	load
    1cfa:	71          	loadsp 4
    1cfb:	8c          	im 12
    1cfc:	12          	addsp 8
    1cfd:	0c          	store
    1cfe:	88          	im 8
    1cff:	12          	addsp 8
    1d00:	0c          	store
    1d01:	59          	storesp 36

00001d02 <.LM130>:
    1d02:	75          	loadsp 20
    1d03:	15          	addsp 20
    1d04:	84          	im 4
    1d05:	11          	addsp 4
    1d06:	08          	load
    1d07:	81          	im 1
    1d08:	07          	or
    1d09:	84          	im 4
    1d0a:	12          	addsp 8
    1d0b:	0c          	store
    1d0c:	58          	storesp 32

00001d0d <.LM131>:
    1d0d:	7c          	loadsp 48
    1d0e:	51          	storesp 4
    1d0f:	82          	im 2
    1d10:	de          	im -34
    1d11:	3f          	callpcrel

00001d12 <.LM132>:
    1d12:	88          	im 8
    1d13:	15          	addsp 20
    1d14:	54          	storesp 16
    1d15:	fb          	im -5
    1d16:	a3          	im 35
    1d17:	39          	poppcrel

00001d18 <.L118>:
    1d18:	77          	loadsp 28
    1d19:	16          	addsp 24

00001d1a <.LM134>:
    1d1a:	78          	loadsp 32
    1d1b:	81          	im 1
    1d1c:	07          	or
    1d1d:	84          	im 4
    1d1e:	18          	addsp 32
    1d1f:	0c          	store

00001d20 <.LM135>:
    1d20:	8c          	im 12
    1d21:	17          	addsp 28
    1d22:	08          	load
    1d23:	88          	im 8
    1d24:	18          	addsp 32
    1d25:	08          	load
    1d26:	71          	loadsp 4
    1d27:	8c          	im 12
    1d28:	12          	addsp 8
    1d29:	0c          	store
    1d2a:	88          	im 8
    1d2b:	12          	addsp 8
    1d2c:	0c          	store
    1d2d:	5c          	storesp 48

00001d2e <.LM136>:
    1d2e:	70          	loadsp 0
    1d2f:	80          	im 0
    1d30:	d6          	im -42
    1d31:	d8          	im -40
    1d32:	0c          	store
    1d33:	70          	loadsp 0
    1d34:	80          	im 0
    1d35:	d6          	im -42
    1d36:	d4          	im -44
    1d37:	0c          	store
    1d38:	80          	im 0
    1d39:	d6          	im -42
    1d3a:	cc          	im -52
    1d3b:	0b          	nop
    1d3c:	8c          	im 12
    1d3d:	12          	addsp 8
    1d3e:	0c          	store
    1d3f:	8c          	im 12
    1d40:	11          	addsp 4
    1d41:	08          	load
    1d42:	88          	im 8
    1d43:	12          	addsp 8
    1d44:	0c          	store

00001d45 <.LM137>:
    1d45:	77          	loadsp 28
    1d46:	81          	im 1
    1d47:	07          	or
    1d48:	84          	im 4
    1d49:	12          	addsp 8
    1d4a:	0c          	store

00001d4b <.LM138>:
    1d4b:	77          	loadsp 28
    1d4c:	05          	add
    1d4d:	77          	loadsp 28
    1d4e:	71          	loadsp 4
    1d4f:	0c          	store
    1d50:	55          	storesp 20

00001d51 <.LM139>:
    1d51:	7c          	loadsp 48
    1d52:	51          	storesp 4
    1d53:	82          	im 2
    1d54:	9a          	im 26
    1d55:	3f          	callpcrel

00001d56 <.LM140>:
    1d56:	88          	im 8
    1d57:	16          	addsp 24
    1d58:	54          	storesp 16
    1d59:	f5          	im -11
    1d5a:	ba          	im 58
    1d5b:	39          	poppcrel

00001d5c <.L119>:
    1d5c:	72          	loadsp 8
    1d5d:	16          	addsp 24
    1d5e:	84          	im 4
    1d5f:	11          	addsp 4
    1d60:	08          	load
    1d61:	81          	im 1
    1d62:	07          	or
    1d63:	84          	im 4
    1d64:	12          	addsp 8
    1d65:	0c          	store
    1d66:	58          	storesp 32

00001d67 <.LM142>:
    1d67:	8c          	im 12
    1d68:	16          	addsp 24
    1d69:	08          	load
    1d6a:	88          	im 8
    1d6b:	17          	addsp 28
    1d6c:	08          	load
    1d6d:	71          	loadsp 4
    1d6e:	8c          	im 12
    1d6f:	12          	addsp 8
    1d70:	0c          	store
    1d71:	88          	im 8
    1d72:	12          	addsp 8
    1d73:	0c          	store
    1d74:	57          	storesp 28

00001d75 <.LM143>:
    1d75:	7c          	loadsp 48
    1d76:	51          	storesp 4
    1d77:	81          	im 1
    1d78:	f6          	im -10
    1d79:	3f          	callpcrel

00001d7a <.LM144>:
    1d7a:	88          	im 8
    1d7b:	16          	addsp 24
    1d7c:	54          	storesp 16
    1d7d:	f5          	im -11
    1d7e:	96          	im 22
    1d7f:	39          	poppcrel

00001d80 <.L96>:
    1d80:	72          	loadsp 8
    1d81:	84          	im 4
    1d82:	15          	addsp 20
    1d83:	0c          	store

00001d84 <.LM145>:
    1d84:	f4          	im -12
    1d85:	1a          	addsp 40
    1d86:	f8          	im -8
    1d87:	06          	and

00001d88 <.LM146>:
    1d88:	70          	loadsp 0
    1d89:	84          	im 4
    1d8a:	1d          	addsp 52
    1d8b:	08          	load
    1d8c:	81          	im 1
    1d8d:	06          	and
    1d8e:	07          	or
    1d8f:	84          	im 4
    1d90:	1d          	addsp 52
    1d91:	0c          	store

00001d92 <.LM147>:
    1d92:	70          	loadsp 0
    1d93:	1c          	addsp 48
    1d94:	55          	storesp 20
    1d95:	56          	storesp 24
    1d96:	85          	im 5
    1d97:	0b          	nop
    1d98:	84          	im 4
    1d99:	15          	addsp 20
    1d9a:	0c          	store

00001d9b <.LM148>:
    1d9b:	85          	im 5
    1d9c:	0b          	nop
    1d9d:	88          	im 8
    1d9e:	15          	addsp 20
    1d9f:	0c          	store

00001da0 <.LM149>:
    1da0:	8f          	im 15
    1da1:	76          	loadsp 24
    1da2:	27          	ulessthanorequal
    1da3:	fd          	im -3
    1da4:	ab          	im 43
    1da5:	38          	neqbranch

00001da6 <.LM150>:
    1da6:	88          	im 8
    1da7:	1b          	addsp 44
    1da8:	52          	storesp 8
    1da9:	7c          	loadsp 48
    1daa:	51          	storesp 4
    1dab:	84          	im 4
    1dac:	c1          	im -63
    1dad:	3f          	callpcrel
    1dae:	80          	im 0
    1daf:	d6          	im -42
    1db0:	c4          	im -60
    1db1:	0b          	nop
    1db2:	88          	im 8
    1db3:	05          	add
    1db4:	08          	load
    1db5:	80          	im 0
    1db6:	d6          	im -42
    1db7:	88          	im 8
    1db8:	08          	load
    1db9:	5a          	storesp 40
    1dba:	55          	storesp 20
    1dbb:	fd          	im -3
    1dbc:	93          	im 19
    1dbd:	39          	poppcrel

00001dbe <.L159>:
    1dbe:	78          	loadsp 32
    1dbf:	80          	im 0
    1dc0:	d6          	im -42
    1dc1:	88          	im 8
    1dc2:	0c          	store

00001dc3 <.LM151>:
    1dc3:	73          	loadsp 12
    1dc4:	80          	im 0
    1dc5:	d6          	im -42
    1dc6:	b8          	im 56
    1dc7:	0c          	store
    1dc8:	fb          	im -5
    1dc9:	ef          	im -17
    1dca:	39          	poppcrel

00001dcb <.L115>:
    1dcb:	72          	loadsp 8
    1dcc:	84          	im 4
    1dcd:	15          	addsp 20
    1dce:	0c          	store
    1dcf:	fc          	im -4
    1dd0:	ff          	im -1
    1dd1:	39          	poppcrel

00001dd2 <memcpy>:
    1dd2:	fb          	im -5
    1dd3:	3d          	pushspadd
    1dd4:	0d          	popsp
    1dd5:	77          	loadsp 28

00001dd6 <.LM2>:
    1dd6:	70          	loadsp 0

00001dd7 <.LM3>:
    1dd7:	7a          	loadsp 40

00001dd8 <.LM4>:
    1dd8:	7c          	loadsp 48
    1dd9:	58          	storesp 32
    1dda:	55          	storesp 20
    1ddb:	53          	storesp 12
    1ddc:	56          	storesp 24

00001ddd <.LM5>:
    1ddd:	8f          	im 15
    1dde:	75          	loadsp 20
    1ddf:	27          	ulessthanorequal
    1de0:	80          	im 0
    1de1:	e6          	im -26
    1de2:	38          	neqbranch
    1de3:	72          	loadsp 8
    1de4:	76          	loadsp 24
    1de5:	07          	or
    1de6:	83          	im 3
    1de7:	06          	and
    1de8:	51          	storesp 4
    1de9:	70          	loadsp 0
    1dea:	80          	im 0
    1deb:	dc          	im -36
    1dec:	38          	neqbranch

00001ded <.LM6>:
    1ded:	75          	loadsp 20

00001dee <.LM7>:
    1dee:	73          	loadsp 12
    1def:	52          	storesp 8
    1df0:	54          	storesp 16

00001df1 <.L5>:
    1df1:	70          	loadsp 0
    1df2:	70          	loadsp 0
    1df3:	84          	im 4
    1df4:	05          	add
    1df5:	52          	storesp 8
    1df6:	08          	load
    1df7:	74          	loadsp 16
    1df8:	70          	loadsp 0
    1df9:	84          	im 4
    1dfa:	05          	add
    1dfb:	56          	storesp 24
    1dfc:	0c          	store
    1dfd:	73          	loadsp 12

00001dfe <.LM9>:
    1dfe:	71          	loadsp 4
    1dff:	70          	loadsp 0
    1e00:	84          	im 4
    1e01:	05          	add
    1e02:	53          	storesp 12
    1e03:	08          	load
    1e04:	71          	loadsp 4
    1e05:	70          	loadsp 0
    1e06:	84          	im 4
    1e07:	05          	add
    1e08:	53          	storesp 12
    1e09:	0c          	store

00001e0a <.LM10>:
    1e0a:	71          	loadsp 4
    1e0b:	70          	loadsp 0
    1e0c:	84          	im 4
    1e0d:	05          	add
    1e0e:	53          	storesp 12
    1e0f:	08          	load
    1e10:	71          	loadsp 4
    1e11:	70          	loadsp 0
    1e12:	84          	im 4
    1e13:	05          	add
    1e14:	53          	storesp 12
    1e15:	0c          	store

00001e16 <.LM11>:
    1e16:	71          	loadsp 4
    1e17:	70          	loadsp 0
    1e18:	84          	im 4
    1e19:	05          	add
    1e1a:	53          	storesp 12
    1e1b:	08          	load
    1e1c:	71          	loadsp 4
    1e1d:	70          	loadsp 0
    1e1e:	84          	im 4
    1e1f:	05          	add
    1e20:	53          	storesp 12
    1e21:	0c          	store

00001e22 <.LM12>:
    1e22:	f0          	im -16
    1e23:	16          	addsp 24
    1e24:	56          	storesp 24
    1e25:	54          	storesp 16
    1e26:	74          	loadsp 16
    1e27:	8f          	im 15
    1e28:	26          	ulessthan
    1e29:	c7          	im -57
    1e2a:	38          	neqbranch

00001e2b <.LM13>:
    1e2b:	83          	im 3
    1e2c:	75          	loadsp 20
    1e2d:	27          	ulessthanorequal
    1e2e:	95          	im 21
    1e2f:	38          	neqbranch

00001e30 <.L28>:
    1e30:	70          	loadsp 0
    1e31:	70          	loadsp 0
    1e32:	84          	im 4
    1e33:	05          	add
    1e34:	52          	storesp 8
    1e35:	08          	load
    1e36:	74          	loadsp 16
    1e37:	70          	loadsp 0
    1e38:	84          	im 4
    1e39:	05          	add
    1e3a:	56          	storesp 24
    1e3b:	0c          	store

00001e3c <.LM15>:
    1e3c:	fc          	im -4
    1e3d:	15          	addsp 20
    1e3e:	55          	storesp 20
    1e3f:	74          	loadsp 16
    1e40:	83          	im 3
    1e41:	26          	ulessthan
    1e42:	ed          	im -19
    1e43:	38          	neqbranch

00001e44 <.L15>:
    1e44:	73          	loadsp 12

00001e45 <.LM17>:
    1e45:	71          	loadsp 4
    1e46:	54          	storesp 16
    1e47:	52          	storesp 8

00001e48 <.L2>:
    1e48:	ff          	im -1
    1e49:	15          	addsp 20
    1e4a:	51          	storesp 4
    1e4b:	70          	loadsp 0
    1e4c:	ff          	im -1
    1e4d:	2e          	eq
    1e4e:	98          	im 24
    1e4f:	38          	neqbranch

00001e50 <.L29>:
    1e50:	72          	loadsp 8
    1e51:	70          	loadsp 0
    1e52:	81          	im 1
    1e53:	05          	add
    1e54:	54          	storesp 16
    1e55:	33          	loadb
    1e56:	72          	loadsp 8
    1e57:	70          	loadsp 0
    1e58:	81          	im 1
    1e59:	05          	add
    1e5a:	54          	storesp 16
    1e5b:	34          	storeb
    1e5c:	ff          	im -1
    1e5d:	11          	addsp 4
    1e5e:	51          	storesp 4
    1e5f:	70          	loadsp 0
    1e60:	ff          	im -1
    1e61:	2e          	eq
    1e62:	09          	not
    1e63:	81          	im 1
    1e64:	06          	and
    1e65:	ea          	im -22
    1e66:	38          	neqbranch

00001e67 <.L17>:
    1e67:	75          	loadsp 20
    1e68:	80          	im 0
    1e69:	0c          	store
    1e6a:	87          	im 7
    1e6b:	3d          	pushspadd
    1e6c:	0d          	popsp
    1e6d:	04          	poppc

00001e6e <__malloc_lock>:
    1e6e:	04          	poppc

00001e6f <__malloc_unlock>:
    1e6f:	04          	poppc

00001e70 <_sbrk_r>:
    1e70:	70          	loadsp 0
    1e71:	70          	loadsp 0
    1e72:	70          	loadsp 0
    1e73:	70          	loadsp 0

00001e74 <.LM2>:
    1e74:	80          	im 0
    1e75:	0b          	nop
    1e76:	81          	im 1
    1e77:	b6          	im 54
    1e78:	9c          	im 28
    1e79:	0c          	store

00001e7a <.LM3>:
    1e7a:	76          	loadsp 24
    1e7b:	51          	storesp 4
    1e7c:	87          	im 7
    1e7d:	cc          	im -52
    1e7e:	3f          	callpcrel
    1e7f:	80          	im 0
    1e80:	08          	load
    1e81:	53          	storesp 12
    1e82:	80          	im 0
    1e83:	08          	load
    1e84:	ff          	im -1
    1e85:	2e          	eq
    1e86:	89          	im 9
    1e87:	38          	neqbranch

00001e88 <.L2>:
    1e88:	72          	loadsp 8
    1e89:	80          	im 0
    1e8a:	0c          	store
    1e8b:	50          	storesp 0
    1e8c:	50          	storesp 0
    1e8d:	50          	storesp 0
    1e8e:	50          	storesp 0
    1e8f:	04          	poppc

00001e90 <.L4>:
    1e90:	81          	im 1
    1e91:	b6          	im 54
    1e92:	9c          	im 28
    1e93:	08          	load
    1e94:	54          	storesp 16
    1e95:	73          	loadsp 12
    1e96:	80          	im 0
    1e97:	2e          	eq
    1e98:	ef          	im -17
    1e99:	38          	neqbranch

00001e9a <.LM6>:
    1e9a:	75          	loadsp 20
    1e9b:	74          	loadsp 16
    1e9c:	71          	loadsp 4
    1e9d:	0c          	store
    1e9e:	52          	storesp 8

00001e9f <.LM7>:
    1e9f:	72          	loadsp 8
    1ea0:	80          	im 0
    1ea1:	0c          	store
    1ea2:	50          	storesp 0
    1ea3:	50          	storesp 0
    1ea4:	50          	storesp 0
    1ea5:	50          	storesp 0
    1ea6:	04          	poppc

00001ea7 <strcmp>:
    1ea7:	fb          	im -5
    1ea8:	3d          	pushspadd
    1ea9:	0d          	popsp
    1eaa:	77          	loadsp 28
    1eab:	79          	loadsp 36

00001eac <.LM2>:
    1eac:	70          	loadsp 0
    1ead:	72          	loadsp 8
    1eae:	07          	or
    1eaf:	83          	im 3
    1eb0:	06          	and
    1eb1:	53          	storesp 12
    1eb2:	54          	storesp 16
    1eb3:	52          	storesp 8
    1eb4:	70          	loadsp 0
    1eb5:	93          	im 19
    1eb6:	38          	neqbranch

00001eb7 <.LM3>:
    1eb7:	71          	loadsp 4

00001eb8 <.LM4>:
    1eb8:	73          	loadsp 12

00001eb9 <.LM5>:
    1eb9:	73          	loadsp 12
    1eba:	08          	load
    1ebb:	54          	storesp 16
    1ebc:	56          	storesp 24
    1ebd:	54          	storesp 16
    1ebe:	71          	loadsp 4
    1ebf:	73          	loadsp 12
    1ec0:	08          	load
    1ec1:	2e          	eq
    1ec2:	80          	im 0
    1ec3:	c4          	im -60
    1ec4:	38          	neqbranch

00001ec5 <.LM6>:
    1ec5:	73          	loadsp 12

00001ec6 <.LM7>:
    1ec6:	75          	loadsp 20
    1ec7:	54          	storesp 16
    1ec8:	52          	storesp 8

00001ec9 <.L2>:
    1ec9:	71          	loadsp 4
    1eca:	33          	loadb
    1ecb:	70          	loadsp 0
    1ecc:	81          	im 1
    1ecd:	ff          	im -1
    1ece:	06          	and
    1ecf:	52          	storesp 8
    1ed0:	54          	storesp 16
    1ed1:	70          	loadsp 0
    1ed2:	80          	im 0
    1ed3:	2e          	eq
    1ed4:	9d          	im 29
    1ed5:	38          	neqbranch

00001ed6 <.L22>:
    1ed6:	72          	loadsp 8
    1ed7:	33          	loadb
    1ed8:	55          	storesp 20
    1ed9:	70          	loadsp 0
    1eda:	75          	loadsp 20
    1edb:	2e          	eq
    1edc:	09          	not
    1edd:	81          	im 1
    1ede:	06          	and
    1edf:	95          	im 21
    1ee0:	38          	neqbranch

00001ee1 <.LM9>:
    1ee1:	81          	im 1
    1ee2:	12          	addsp 8

00001ee3 <.LM10>:
    1ee3:	81          	im 1
    1ee4:	14          	addsp 16
    1ee5:	71          	loadsp 4
    1ee6:	33          	loadb
    1ee7:	70          	loadsp 0
    1ee8:	81          	im 1
    1ee9:	ff          	im -1
    1eea:	06          	and
    1eeb:	54          	storesp 16
    1eec:	56          	storesp 24
    1eed:	54          	storesp 16
    1eee:	52          	storesp 8
    1eef:	70          	loadsp 0
    1ef0:	e5          	im -27
    1ef1:	38          	neqbranch

00001ef2 <.L14>:
    1ef2:	72          	loadsp 8
    1ef3:	33          	loadb
    1ef4:	55          	storesp 20

00001ef5 <.L8>:
    1ef5:	73          	loadsp 12
    1ef6:	81          	im 1
    1ef7:	ff          	im -1
    1ef8:	06          	and
    1ef9:	75          	loadsp 20
    1efa:	81          	im 1
    1efb:	ff          	im -1
    1efc:	06          	and
    1efd:	71          	loadsp 4
    1efe:	71          	loadsp 4
    1eff:	31          	sub

00001f00 <.LM12>:
    1f00:	80          	im 0
    1f01:	0c          	store
    1f02:	55          	storesp 20
    1f03:	52          	storesp 8
    1f04:	87          	im 7
    1f05:	3d          	pushspadd
    1f06:	0d          	popsp
    1f07:	04          	poppc

00001f08 <.L16>:
    1f08:	71          	loadsp 4
    1f09:	09          	not
    1f0a:	f7          	im -9
    1f0b:	fb          	im -5
    1f0c:	fd          	im -3
    1f0d:	ff          	im -1
    1f0e:	13          	addsp 12
    1f0f:	06          	and
    1f10:	f8          	im -8
    1f11:	84          	im 4
    1f12:	82          	im 2
    1f13:	81          	im 1
    1f14:	80          	im 0
    1f15:	06          	and
    1f16:	52          	storesp 8
    1f17:	71          	loadsp 4
    1f18:	97          	im 23
    1f19:	38          	neqbranch

00001f1a <.LM14>:
    1f1a:	84          	im 4
    1f1b:	14          	addsp 16

00001f1c <.LM15>:
    1f1c:	84          	im 4
    1f1d:	16          	addsp 24
    1f1e:	71          	loadsp 4
    1f1f:	08          	load
    1f20:	54          	storesp 16
    1f21:	56          	storesp 24
    1f22:	54          	storesp 16
    1f23:	71          	loadsp 4
    1f24:	75          	loadsp 20
    1f25:	08          	load
    1f26:	2e          	eq
    1f27:	e0          	im -32
    1f28:	38          	neqbranch

00001f29 <.LM16>:
    1f29:	73          	loadsp 12

00001f2a <.LM17>:
    1f2a:	75          	loadsp 20
    1f2b:	54          	storesp 16
    1f2c:	52          	storesp 8
    1f2d:	ff          	im -1
    1f2e:	9a          	im 26
    1f2f:	39          	poppcrel

00001f30 <.L15>:
    1f30:	80          	im 0

00001f31 <.LM19>:
    1f31:	0b          	nop
    1f32:	80          	im 0
    1f33:	0c          	store
    1f34:	87          	im 7
    1f35:	3d          	pushspadd
    1f36:	0d          	popsp
    1f37:	04          	poppc

00001f38 <_malloc_trim_r>:
    1f38:	fb          	im -5
    1f39:	3d          	pushspadd
    1f3a:	0d          	popsp
    1f3b:	77          	loadsp 28

00001f3c <.LM2>:
    1f3c:	70          	loadsp 0
    1f3d:	52          	storesp 8
    1f3e:	56          	storesp 24
    1f3f:	fe          	im -2
    1f40:	ad          	im 45
    1f41:	3f          	callpcrel

00001f42 <.LM3>:
    1f42:	80          	im 0
    1f43:	d6          	im -42
    1f44:	c4          	im -60
    1f45:	0b          	nop
    1f46:	88          	im 8
    1f47:	05          	add
    1f48:	08          	load
    1f49:	84          	im 4
    1f4a:	11          	addsp 4
    1f4b:	08          	load
    1f4c:	fc          	im -4
    1f4d:	06          	and

00001f4e <.LM4>:
    1f4e:	70          	loadsp 0
    1f4f:	7b          	loadsp 44
    1f50:	31          	sub
    1f51:	9f          	im 31
    1f52:	ef          	im -17
    1f53:	05          	add
    1f54:	e0          	im -32
    1f55:	80          	im 0
    1f56:	06          	and
    1f57:	e0          	im -32
    1f58:	80          	im 0
    1f59:	05          	add
    1f5a:	52          	storesp 8
    1f5b:	55          	storesp 20
    1f5c:	55          	storesp 20

00001f5d <.LM5>:
    1f5d:	a0          	im 32
    1f5e:	80          	im 0
    1f5f:	75          	loadsp 20
    1f60:	24          	lessthan
    1f61:	94          	im 20
    1f62:	38          	neqbranch

00001f63 <.LM6>:
    1f63:	80          	im 0
    1f64:	52          	storesp 8
    1f65:	75          	loadsp 20
    1f66:	51          	storesp 4
    1f67:	fe          	im -2
    1f68:	87          	im 7
    1f69:	3f          	callpcrel

00001f6a <.LM7>:
    1f6a:	80          	im 0
    1f6b:	d6          	im -42
    1f6c:	cc          	im -52
    1f6d:	08          	load
    1f6e:	14          	addsp 16
    1f6f:	53          	storesp 12
    1f70:	72          	loadsp 8
    1f71:	80          	im 0
    1f72:	08          	load
    1f73:	2e          	eq
    1f74:	8f          	im 15
    1f75:	38          	neqbranch

00001f76 <.L7>:
    1f76:	75          	loadsp 20
    1f77:	51          	storesp 4
    1f78:	fd          	im -3
    1f79:	f5          	im -11
    1f7a:	3f          	callpcrel

00001f7b <.LM9>:
    1f7b:	80          	im 0
    1f7c:	53          	storesp 12

00001f7d <.L1>:
    1f7d:	72          	loadsp 8
    1f7e:	80          	im 0
    1f7f:	0c          	store
    1f80:	87          	im 7
    1f81:	3d          	pushspadd
    1f82:	0d          	popsp
    1f83:	04          	poppc

00001f84 <.L10>:
    1f84:	74          	loadsp 16
    1f85:	30          	neg
    1f86:	52          	storesp 8
    1f87:	75          	loadsp 20
    1f88:	51          	storesp 4
    1f89:	fd          	im -3
    1f8a:	e5          	im -27
    1f8b:	3f          	callpcrel

00001f8c <.LM12>:
    1f8c:	80          	im 0
    1f8d:	08          	load
    1f8e:	ff          	im -1
    1f8f:	2e          	eq
    1f90:	a8          	im 40
    1f91:	38          	neqbranch

00001f92 <.LM13>:
    1f92:	80          	im 0
    1f93:	d6          	im -42
    1f94:	c4          	im -60
    1f95:	0b          	nop
    1f96:	88          	im 8
    1f97:	05          	add
    1f98:	08          	load
    1f99:	74          	loadsp 16
    1f9a:	76          	loadsp 24
    1f9b:	31          	sub
    1f9c:	81          	im 1
    1f9d:	07          	or
    1f9e:	84          	im 4
    1f9f:	12          	addsp 8
    1fa0:	0c          	store
    1fa1:	53          	storesp 12

00001fa2 <.LM14>:
    1fa2:	80          	im 0
    1fa3:	d6          	im -42
    1fa4:	88          	im 8
    1fa5:	08          	load
    1fa6:	75          	loadsp 20
    1fa7:	31          	sub
    1fa8:	80          	im 0
    1fa9:	d6          	im -42
    1faa:	88          	im 8
    1fab:	0c          	store

00001fac <.LM15>:
    1fac:	75          	loadsp 20
    1fad:	51          	storesp 4
    1fae:	fd          	im -3
    1faf:	bf          	im 63
    1fb0:	3f          	callpcrel

00001fb1 <.LM16>:
    1fb1:	81          	im 1

00001fb2 <.LM17>:
    1fb2:	0b          	nop
    1fb3:	80          	im 0
    1fb4:	0c          	store
    1fb5:	87          	im 7
    1fb6:	3d          	pushspadd
    1fb7:	0d          	popsp
    1fb8:	04          	poppc

00001fb9 <.L11>:
    1fb9:	80          	im 0
    1fba:	52          	storesp 8
    1fbb:	75          	loadsp 20
    1fbc:	51          	storesp 4
    1fbd:	fd          	im -3
    1fbe:	b1          	im 49
    1fbf:	3f          	callpcrel

00001fc0 <.LM19>:
    1fc0:	80          	im 0
    1fc1:	d6          	im -42
    1fc2:	c4          	im -60
    1fc3:	0b          	nop
    1fc4:	88          	im 8
    1fc5:	05          	add
    1fc6:	08          	load
    1fc7:	80          	im 0
    1fc8:	08          	load
    1fc9:	71          	loadsp 4
    1fca:	31          	sub
    1fcb:	54          	storesp 16
    1fcc:	54          	storesp 16

00001fcd <.LM20>:
    1fcd:	8f          	im 15
    1fce:	73          	loadsp 12
    1fcf:	25          	lessthanorequal
    1fd0:	ff          	im -1
    1fd1:	a4          	im 36
    1fd2:	38          	neqbranch

00001fd3 <.LM21>:
    1fd3:	80          	im 0
    1fd4:	08          	load
    1fd5:	80          	im 0
    1fd6:	d6          	im -42
    1fd7:	b8          	im 56
    1fd8:	08          	load
    1fd9:	31          	sub
    1fda:	80          	im 0
    1fdb:	d6          	im -42
    1fdc:	88          	im 8
    1fdd:	0c          	store

00001fde <.LM22>:
    1fde:	72          	loadsp 8
    1fdf:	81          	im 1
    1fe0:	07          	or
    1fe1:	84          	im 4
    1fe2:	15          	addsp 20
    1fe3:	0c          	store

00001fe4 <.LM23>:
    1fe4:	75          	loadsp 20
    1fe5:	51          	storesp 4
    1fe6:	fd          	im -3
    1fe7:	87          	im 7
    1fe8:	3f          	callpcrel

00001fe9 <.LM24>:
    1fe9:	80          	im 0
    1fea:	53          	storesp 12
    1feb:	ff          	im -1
    1fec:	90          	im 16
    1fed:	39          	poppcrel

00001fee <_free_r>:
    1fee:	f7          	im -9
    1fef:	3d          	pushspadd
    1ff0:	0d          	popsp
    1ff1:	7b          	loadsp 44
    1ff2:	7d          	loadsp 52
    1ff3:	54          	storesp 16
    1ff4:	5a          	storesp 40

00001ff5 <.LM26>:
    1ff5:	72          	loadsp 8
    1ff6:	80          	im 0
    1ff7:	2e          	eq
    1ff8:	82          	im 2
    1ff9:	83          	im 3
    1ffa:	38          	neqbranch

00001ffb <.LM27>:
    1ffb:	79          	loadsp 36
    1ffc:	51          	storesp 4
    1ffd:	fc          	im -4
    1ffe:	ef          	im -17
    1fff:	3f          	callpcrel

00002000 <.LM28>:
    2000:	f8          	im -8
    2001:	13          	addsp 12

00002002 <.LM29>:
    2002:	84          	im 4
    2003:	11          	addsp 4
    2004:	08          	load

00002005 <.LM30>:
    2005:	70          	loadsp 0
    2006:	fe          	im -2
    2007:	06          	and

00002008 <.LM31>:
    2008:	70          	loadsp 0
    2009:	13          	addsp 12

0000200a <.LM32>:
    200a:	84          	im 4
    200b:	11          	addsp 4
    200c:	08          	load
    200d:	fc          	im -4
    200e:	06          	and
    200f:	5c          	storesp 48
    2010:	57          	storesp 28
    2011:	58          	storesp 32
    2012:	54          	storesp 16
    2013:	57          	storesp 28

00002014 <.LM33>:
    2014:	80          	im 0
    2015:	d6          	im -42
    2016:	cc          	im -52
    2017:	08          	load
    2018:	74          	loadsp 16
    2019:	2e          	eq
    201a:	82          	im 2
    201b:	de          	im -34
    201c:	38          	neqbranch

0000201d <.LM34>:
    201d:	77          	loadsp 28
    201e:	84          	im 4
    201f:	15          	addsp 20
    2020:	0c          	store

00002021 <.LM35>:
    2021:	80          	im 0

00002022 <.LM36>:
    2022:	73          	loadsp 12
    2023:	81          	im 1
    2024:	06          	and
    2025:	56          	storesp 24
    2026:	59          	storesp 36
    2027:	74          	loadsp 16
    2028:	79          	loadsp 36
    2029:	2e          	eq
    202a:	81          	im 1
    202b:	d5          	im -43
    202c:	38          	neqbranch

0000202d <.L17>:
    202d:	77          	loadsp 28
    202e:	14          	addsp 16
    202f:	84          	im 4
    2030:	11          	addsp 4
    2031:	08          	load
    2032:	81          	im 1
    2033:	06          	and
    2034:	56          	storesp 24
    2035:	53          	storesp 12
    2036:	74          	loadsp 16
    2037:	a0          	im 32
    2038:	38          	neqbranch

00002039 <.LM38>:
    2039:	77          	loadsp 28
    203a:	16          	addsp 24
    203b:	56          	storesp 24

0000203c <.LM39>:
    203c:	78          	loadsp 32
    203d:	81          	im 1
    203e:	e6          	im -26
    203f:	38          	neqbranch
    2040:	88          	im 8
    2041:	14          	addsp 16
    2042:	08          	load
    2043:	55          	storesp 20
    2044:	74          	loadsp 16
    2045:	80          	im 0
    2046:	d6          	im -42
    2047:	cc          	im -52
    2048:	2e          	eq
    2049:	82          	im 2
    204a:	f9          	im -7
    204b:	38          	neqbranch

0000204c <.LM40>:
    204c:	8c          	im 12
    204d:	14          	addsp 16
    204e:	08          	load
    204f:	70          	loadsp 0
    2050:	8c          	im 12
    2051:	17          	addsp 28
    2052:	0c          	store
    2053:	75          	loadsp 20
    2054:	88          	im 8
    2055:	12          	addsp 8
    2056:	0c          	store
    2057:	58          	storesp 32

00002058 <.L20>:
    2058:	75          	loadsp 20
    2059:	81          	im 1
    205a:	07          	or
    205b:	84          	im 4
    205c:	18          	addsp 32
    205d:	0c          	store

0000205e <.LM42>:
    205e:	75          	loadsp 20
    205f:	17          	addsp 28
    2060:	76          	loadsp 24
    2061:	71          	loadsp 4
    2062:	0c          	store
    2063:	54          	storesp 16

00002064 <.LM43>:
    2064:	78          	loadsp 32
    2065:	81          	im 1
    2066:	91          	im 17
    2067:	38          	neqbranch

00002068 <.LM44>:
    2068:	83          	im 3
    2069:	ff          	im -1
    206a:	76          	loadsp 24
    206b:	27          	ulessthanorequal
    206c:	81          	im 1
    206d:	c8          	im -56
    206e:	38          	neqbranch
    206f:	75          	loadsp 20
    2070:	89          	im 9
    2071:	2a          	lshiftright
    2072:	76          	loadsp 24
    2073:	83          	im 3
    2074:	2a          	lshiftright
    2075:	54          	storesp 16
    2076:	54          	storesp 16
    2077:	73          	loadsp 12
    2078:	80          	im 0
    2079:	2e          	eq
    207a:	bf          	im 63
    207b:	38          	neqbranch
    207c:	75          	loadsp 20
    207d:	86          	im 6
    207e:	2a          	lshiftright
    207f:	b8          	im 56
    2080:	05          	add
    2081:	53          	storesp 12
    2082:	84          	im 4
    2083:	74          	loadsp 16
    2084:	27          	ulessthanorequal
    2085:	b4          	im 52
    2086:	38          	neqbranch
    2087:	80          	im 0
    2088:	db          	im -37
    2089:	14          	addsp 16
    208a:	53          	storesp 12
    208b:	94          	im 20
    208c:	74          	loadsp 16
    208d:	27          	ulessthanorequal
    208e:	ab          	im 43
    208f:	38          	neqbranch
    2090:	75          	loadsp 20
    2091:	8c          	im 12
    2092:	2a          	lshiftright
    2093:	80          	im 0
    2094:	ee          	im -18
    2095:	05          	add
    2096:	53          	storesp 12
    2097:	80          	im 0
    2098:	d4          	im -44
    2099:	74          	loadsp 16
    209a:	27          	ulessthanorequal
    209b:	9e          	im 30
    209c:	38          	neqbranch
    209d:	75          	loadsp 20
    209e:	8f          	im 15
    209f:	2a          	lshiftright
    20a0:	80          	im 0
    20a1:	f7          	im -9
    20a2:	05          	add
    20a3:	53          	storesp 12
    20a4:	82          	im 2
    20a5:	d4          	im -44
    20a6:	74          	loadsp 16
    20a7:	27          	ulessthanorequal
    20a8:	91          	im 17
    20a9:	38          	neqbranch
    20aa:	75          	loadsp 20
    20ab:	92          	im 18
    20ac:	2a          	lshiftright
    20ad:	80          	im 0
    20ae:	fc          	im -4
    20af:	05          	add
    20b0:	53          	storesp 12
    20b1:	8a          	im 10
    20b2:	d4          	im -44
    20b3:	74          	loadsp 16
    20b4:	27          	ulessthanorequal
    20b5:	84          	im 4
    20b6:	38          	neqbranch
    20b7:	80          	im 0
    20b8:	fe          	im -2
    20b9:	53          	storesp 12

000020ba <.L28>:
    20ba:	72          	loadsp 8
    20bb:	10          	addsp 0
    20bc:	10          	addsp 0
    20bd:	10          	addsp 0
    20be:	80          	im 0
    20bf:	d6          	im -42
    20c0:	c4          	im -60
    20c1:	05          	add
    20c2:	88          	im 8
    20c3:	11          	addsp 4
    20c4:	08          	load
    20c5:	55          	storesp 20
    20c6:	55          	storesp 20
    20c7:	73          	loadsp 12
    20c8:	75          	loadsp 20
    20c9:	2e          	eq
    20ca:	82          	im 2
    20cb:	bf          	im 63
    20cc:	38          	neqbranch

000020cd <.L46>:
    20cd:	84          	im 4
    20ce:	14          	addsp 16
    20cf:	08          	load
    20d0:	fc          	im -4
    20d1:	06          	and
    20d2:	59          	storesp 36
    20d3:	75          	loadsp 20
    20d4:	79          	loadsp 36
    20d5:	27          	ulessthanorequal
    20d6:	8d          	im 13
    20d7:	38          	neqbranch
    20d8:	88          	im 8
    20d9:	14          	addsp 16
    20da:	08          	load
    20db:	54          	storesp 16
    20dc:	73          	loadsp 12
    20dd:	75          	loadsp 20
    20de:	2e          	eq
    20df:	09          	not
    20e0:	81          	im 1
    20e1:	06          	and
    20e2:	ea          	im -22
    20e3:	38          	neqbranch

000020e4 <.L43>:
    20e4:	8c          	im 12
    20e5:	14          	addsp 16
    20e6:	08          	load
    20e7:	70          	loadsp 0
    20e8:	8c          	im 12
    20e9:	19          	addsp 36
    20ea:	0c          	store
    20eb:	74          	loadsp 16
    20ec:	88          	im 8
    20ed:	19          	addsp 36
    20ee:	0c          	store
    20ef:	77          	loadsp 28
    20f0:	88          	im 8
    20f1:	12          	addsp 8
    20f2:	0c          	store
    20f3:	55          	storesp 20

000020f4 <.L50>:
    20f4:	76          	loadsp 24
    20f5:	8c          	im 12
    20f6:	15          	addsp 20
    20f7:	0c          	store

000020f8 <.L23>:
    20f8:	79          	loadsp 36
    20f9:	51          	storesp 4
    20fa:	fa          	im -6
    20fb:	f3          	im -13
    20fc:	3f          	callpcrel

000020fd <.L12>:
